---
triple:          'x86_64-apple-darwin'
binary-path:     '/var/root/Library/Developer/Xcode/DerivedData/libprisma-bhwixxjyzoadrkaeijfgbpqnpkux/Build/Intermediates.noindex/ArchiveIntermediates/libprisma/InstallationBuildProductsLocation/Library/Frameworks/libprisma.framework/libprisma'
relocations:
  - { offset: 0x5AAFD, size: 0x8, addend: 0x0, symName: _libprismaVersionString, symObjAddr: 0x0, symBinAddr: 0x1D300, symSize: 0x0 }
  - { offset: 0x5AB32, size: 0x8, addend: 0x0, symName: _libprismaVersionNumber, symObjAddr: 0x30, symBinAddr: 0x1D330, symSize: 0x0 }
  - { offset: 0x5BC6B, size: 0x8, addend: 0x0, symName: __ZN5boost13re_detail_50020get_default_class_idIcEEiPKT_S4_, symObjAddr: 0x3B86, symBinAddr: 0x5386, symSize: 0x86 }
  - { offset: 0x5BC97, size: 0x8, addend: 0x0, symName: __ZZN5boost13re_detail_50020get_default_class_idIcEEiPKT_S4_E4data, symObjAddr: 0xFE40, symBinAddr: 0x1D8B0, symSize: 0x0 }
  - { offset: 0x5BCAE, size: 0x8, addend: 0x0, symName: __ZZN5boost13re_detail_50020get_default_class_idIcEEiPKT_S4_E6ranges, symObjAddr: 0xF600, symBinAddr: 0x229D0, symSize: 0x0 }
  - { offset: 0x5C425, size: 0x8, addend: 0x0, symName: __ZN5boost13re_detail_50027lookup_default_collate_nameERKNSt3__112basic_stringIcNS1_11char_traitsIcEENS1_9allocatorIcEEEE, symObjAddr: 0xABCE, symBinAddr: 0xC262, symSize: 0x12A }
  - { offset: 0x5C451, size: 0x8, addend: 0x0, symName: __ZZN5boost13re_detail_50027lookup_default_collate_nameERKNSt3__112basic_stringIcNS1_11char_traitsIcEENS1_9allocatorIcEEEEE14def_coll_names, symObjAddr: 0x11650, symBinAddr: 0x247A0, symSize: 0x0 }
  - { offset: 0x5C468, size: 0x8, addend: 0x0, symName: __ZZN5boost13re_detail_50027lookup_default_collate_nameERKNSt3__112basic_stringIcNS1_11char_traitsIcEENS1_9allocatorIcEEEEE14def_multi_coll, symObjAddr: 0x11A60, symBinAddr: 0x24BB0, symSize: 0x0 }
  - { offset: 0x5CF4A, size: 0x8, addend: 0x0, symName: __ZN5boost13re_detail_50016find_sort_syntaxINS0_31cpp_regex_traits_implementationIcEEcEEjPKT_PT0_, symObjAddr: 0x21A2, symBinAddr: 0x3A5A, symSize: 0x268 }
  - { offset: 0x5DAC5, size: 0x8, addend: 0x0, symName: __ZN5boost13re_detail_50011count_charsINSt3__112basic_stringIcNS2_11char_traitsIcEENS2_9allocatorIcEEEEcEEjRKT_T0_, symObjAddr: 0x2AC6, symBinAddr: 0x4342, symSize: 0x4A }
  - { offset: 0x5DC66, size: 0x8, addend: 0x0, symName: __ZN5boost13re_detail_50016re_is_set_memberIPccNS_12regex_traitsIcNS_16cpp_regex_traitsIcEEEEjEET_S7_S7_PKNS0_11re_set_longIT2_EERKNS0_10regex_dataIT0_T1_EEb, symObjAddr: 0xDF46, symBinAddr: 0xF18E, symSize: 0x418 }
  - { offset: 0x601C0, size: 0x8, addend: 0x0, symName: __ZN5boost15throw_exceptionISt13runtime_errorEEvRKT_, symObjAddr: 0x1CE9, symBinAddr: 0x36AD, symSize: 0x4B }
  - { offset: 0x7028B, size: 0x8, addend: 0x0, symName: __ZNSt3__119piecewise_constructE, symObjAddr: 0xF9E8, symBinAddr: 0x1D458, symSize: 0x0 }
  - { offset: 0x857A9, size: 0x8, addend: 0x0, symName: __ZNSt3__115allocate_sharedB8ne180100I7PatternNS_9allocatorIS1_EEJRNS_12basic_stringIcNS_11char_traitsIcEENS2_IcEEEERjRbSB_S9_RNS_10shared_ptrI10GrammarPtrEEEvEENSC_IT_EERKT0_DpOT1_, symObjAddr: 0x11C, symBinAddr: 0x1AFC, symSize: 0x82 }
  - { offset: 0x86023, size: 0x8, addend: 0x0, symName: __ZNSt3__112construct_atB8ne180100I7PatternJRNS_12basic_stringIcNS_11char_traitsIcEENS_9allocatorIcEEEERjRbSA_S8_RNS_10shared_ptrI10GrammarPtrEEEPS1_EEPT_SH_DpOT0_, symObjAddr: 0x27A, symBinAddr: 0x1C5A, symSize: 0x124 }
  - { offset: 0x866A8, size: 0x8, addend: 0x0, symName: __ZNSt3__112__destroy_atB8ne180100I7PatternLi0EEEvPT_, symObjAddr: 0xE441, symBinAddr: 0xF649, symSize: 0x2F }
  - { offset: 0x86E02, size: 0x8, addend: 0x0, symName: __ZNSt3__120__throw_length_errorB8ne180100EPKc, symObjAddr: 0x432, symBinAddr: 0x1E02, symSize: 0x4C }
  - { offset: 0x875AA, size: 0x8, addend: 0x0, symName: __ZNSt3__1plB8ne180100IcNS_11char_traitsIcEENS_9allocatorIcEEEENS_12basic_stringIT_T0_T1_EERKS9_SB_, symObjAddr: 0x1A75, symBinAddr: 0x3439, symSize: 0xC3 }
  - { offset: 0x87E63, size: 0x8, addend: 0x0, symName: __ZNSt3__127__tree_balance_after_insertB8ne180100IPNS_16__tree_node_baseIPvEEEEvT_S5_, symObjAddr: 0x24E8, symBinAddr: 0x3DA0, symSize: 0x162 }
  - { offset: 0x8823E, size: 0x8, addend: 0x0, symName: __ZNSt3__1ssB8ne180100IcNS_11char_traitsIcEENS_9allocatorIcEEEEDaRKNS_12basic_stringIT_T0_T1_EESC_, symObjAddr: 0x2814, symBinAddr: 0x4090, symSize: 0x66 }
  - { offset: 0x88794, size: 0x8, addend: 0x0, symName: __ZNSt3__120__throw_out_of_rangeB8ne180100EPKc, symObjAddr: 0x2B10, symBinAddr: 0x438C, symSize: 0x4C }
  - { offset: 0x887D5, size: 0x8, addend: 0x0, symName: __ZNSt3__112__destroy_atB8ne180100INS_4pairIKNS_12basic_stringIcNS_11char_traitsIcEENS_9allocatorIcEEEES7_EELi0EEEvPT_, symObjAddr: 0x2BBC, symBinAddr: 0x4438, symSize: 0x34 }
  - { offset: 0x89667, size: 0x8, addend: 0x0, symName: __ZNSt3__113__tree_removeB8ne180100IPNS_16__tree_node_baseIPvEEEEvT_S5_, symObjAddr: 0x3066, symBinAddr: 0x48A6, symSize: 0x34A }
  - { offset: 0x8B398, size: 0x8, addend: 0x0, symName: __ZNSt3__113__lower_boundB8ne180100INS_17_ClassicAlgPolicyEPKN5boost13re_detail_50023character_pointer_rangeIcEES7_S5_NS_10__identityENS_6__lessIvvEEEET0_SB_T1_RKT2_RT4_RT3_, symObjAddr: 0x3C75, symBinAddr: 0x5475, symSize: 0x87 }
  - { offset: 0x8BC3E, size: 0x8, addend: 0x0, symName: __ZNSt3__119__allocate_at_leastB8ne180100INS_9allocatorINS_4pairImmEEEEEENS_19__allocation_resultINS_16allocator_traitsIT_E7pointerEEERS7_m, symObjAddr: 0x8C9C, symBinAddr: 0xA3F8, symSize: 0x2E }
  - { offset: 0x8C258, size: 0x8, addend: 0x0, symName: __ZN5boost13re_detail_50018basic_regex_parserIcNS_12regex_traitsIcNS_16cpp_regex_traitsIcEEEEE17parse_set_literalERNS0_14basic_char_setIcS5_EE, symObjAddr: 0xAE32, symBinAddr: 0xC40A, symSize: 0x12C }
  - { offset: 0x8D71C, size: 0x8, addend: 0x0, symName: __ZNSt3__119__allocate_at_leastB8ne180100INS_9allocatorIN5boost13re_detail_50020named_subexpressions4nameEEEEENS_19__allocation_resultINS_16allocator_traitsIT_E7pointerEEERS9_m, symObjAddr: 0x8ABE, symBinAddr: 0xA21A, symSize: 0x2E }
  - { offset: 0x8D7D2, size: 0x8, addend: 0x0, symName: __ZN5boost13re_detail_50011raw_storage6insertEmm, symObjAddr: 0x8AEC, symBinAddr: 0xA248, symSize: 0x76 }
  - { offset: 0x8E4DF, size: 0x8, addend: 0x0, symName: __ZNSt3__119__allocate_at_leastB8ne180100INS_9allocatorIN5boost13re_detail_5007digraphIcEEEEEENS_19__allocation_resultINS_16allocator_traitsIT_E7pointerEEERS9_m, symObjAddr: 0xB90C, symBinAddr: 0xCEE4, symSize: 0x26 }
  - { offset: 0x8E595, size: 0x8, addend: 0x0, symName: __ZNSt3__16__treeIN5boost13re_detail_5007digraphIcEENS_4lessIS4_EENS_9allocatorIS4_EEE25__emplace_unique_key_argsIS4_JRKS4_EEENS_4pairINS_15__tree_iteratorIS4_PNS_11__tree_nodeIS4_PvEElEEbEERKT_DpOT0_, symObjAddr: 0xB932, symBinAddr: 0xCF0A, symSize: 0x6E }
  - { offset: 0x90514, size: 0x8, addend: 0x0, symName: __ZSt28__throw_bad_array_new_lengthB8ne180100v, symObjAddr: 0x19E, symBinAddr: 0x1B7E, symSize: 0x32 }
  - { offset: 0x916F3, size: 0x8, addend: 0x0, symName: __ZN5boost12object_cacheINS_13re_detail_50021cpp_regex_traits_baseIcEENS1_31cpp_regex_traits_implementationIcEEE3getERKS3_m, symObjAddr: 0x978, symBinAddr: 0x233C, symSize: 0xA4 }
  - { offset: 0x91714, size: 0x8, addend: 0x0, symName: __ZZN5boost12object_cacheINS_13re_detail_50021cpp_regex_traits_baseIcEENS1_31cpp_regex_traits_implementationIcEEE3getERKS3_mE3mut, symObjAddr: 0x11560, symBinAddr: 0x246B0, symSize: 0x0 }
  - { offset: 0x91809, size: 0x8, addend: 0x0, symName: __ZN5boost12object_cacheINS_13re_detail_50021cpp_regex_traits_baseIcEENS1_31cpp_regex_traits_implementationIcEEE6do_getERKS3_m, symObjAddr: 0xB02, symBinAddr: 0x24C6, symSize: 0x638 }
  - { offset: 0x9182A, size: 0x8, addend: 0x0, symName: __ZZN5boost12object_cacheINS_13re_detail_50021cpp_regex_traits_baseIcEENS1_31cpp_regex_traits_implementationIcEEE6do_getERKS3_mE6s_data, symObjAddr: 0x115A8, symBinAddr: 0x246F8, symSize: 0x0 }
  - { offset: 0x93466, size: 0x8, addend: 0x0, symName: __ZN5boost16cpp_regex_traitsIcE14get_mutex_instEv, symObjAddr: 0x1B38, symBinAddr: 0x34FC, symSize: 0x52 }
  - { offset: 0x93489, size: 0x8, addend: 0x0, symName: __ZZN5boost16cpp_regex_traitsIcE14get_mutex_instEvE7s_mutex, symObjAddr: 0x115E0, symBinAddr: 0x24730, symSize: 0x0 }
  - { offset: 0x93494, size: 0x8, addend: 0x0, symName: __ZN5boost16cpp_regex_traitsIcE21get_catalog_name_instEv, symObjAddr: 0x1B8A, symBinAddr: 0x354E, symSize: 0x52 }
  - { offset: 0x934B7, size: 0x8, addend: 0x0, symName: __ZZN5boost16cpp_regex_traitsIcE21get_catalog_name_instEvE6s_name, symObjAddr: 0x11628, symBinAddr: 0x24778, symSize: 0x0 }
  - { offset: 0x934C2, size: 0x8, addend: 0x0, symName: __ZN5boost13re_detail_50031cpp_regex_traits_implementationIcE4initEv, symObjAddr: 0x1394, symBinAddr: 0x2D58, symSize: 0x388 }
  - { offset: 0x934E9, size: 0x8, addend: 0x0, symName: __ZZN5boost13re_detail_50031cpp_regex_traits_implementationIcE4initEvE5masks, symObjAddr: 0xF990, symBinAddr: 0x1D400, symSize: 0x0 }
  - { offset: 0x93500, size: 0x8, addend: 0x0, symName: __ZZN5boost13re_detail_50031cpp_regex_traits_implementationIcE4initEvE11null_string, symObjAddr: 0xF9D0, symBinAddr: 0x1D440, symSize: 0x0 }
  - { offset: 0x95204, size: 0x8, addend: 0x0, symName: __ZN5boost13re_detail_50019basic_regex_creatorIcNS_12regex_traitsIcNS_16cpp_regex_traitsIcEEEEEC2EPNS0_10regex_dataIcS5_EE, symObjAddr: 0x3882, symBinAddr: 0x5082, symSize: 0x176 }
  - { offset: 0x9522F, size: 0x8, addend: 0x0, symName: __ZZN5boost13re_detail_50019basic_regex_creatorIcNS_12regex_traitsIcNS_16cpp_regex_traitsIcEEEEEC1EPNS0_10regex_dataIcS5_EEE1w, symObjAddr: 0xFDCE, symBinAddr: 0x1D83E, symSize: 0x0 }
  - { offset: 0x95246, size: 0x8, addend: 0x0, symName: __ZZN5boost13re_detail_50019basic_regex_creatorIcNS_12regex_traitsIcNS_16cpp_regex_traitsIcEEEEEC1EPNS0_10regex_dataIcS5_EEE1s, symObjAddr: 0xFDCF, symBinAddr: 0x1D83F, symSize: 0x0 }
  - { offset: 0x9525D, size: 0x8, addend: 0x0, symName: __ZZN5boost13re_detail_50019basic_regex_creatorIcNS_12regex_traitsIcNS_16cpp_regex_traitsIcEEEEEC1EPNS0_10regex_dataIcS5_EEE1l, symObjAddr: 0xFDD0, symBinAddr: 0x1D840, symSize: 0x0 }
  - { offset: 0x95274, size: 0x8, addend: 0x0, symName: __ZZN5boost13re_detail_50019basic_regex_creatorIcNS_12regex_traitsIcNS_16cpp_regex_traitsIcEEEEEC1EPNS0_10regex_dataIcS5_EEE1u, symObjAddr: 0xFDD5, symBinAddr: 0x1D845, symSize: 0x0 }
  - { offset: 0x9528B, size: 0x8, addend: 0x0, symName: __ZZN5boost13re_detail_50019basic_regex_creatorIcNS_12regex_traitsIcNS_16cpp_regex_traitsIcEEEEEC1EPNS0_10regex_dataIcS5_EEE1a, symObjAddr: 0xFDDA, symBinAddr: 0x1D84A, symSize: 0x0 }
  - { offset: 0x95669, size: 0x8, addend: 0x0, symName: __ZNK5boost13re_detail_50031cpp_regex_traits_implementationIcE20lookup_classname_impEPKcS4_, symObjAddr: 0x3ABE, symBinAddr: 0x52BE, symSize: 0xC8 }
  - { offset: 0x95690, size: 0x8, addend: 0x0, symName: __ZZNK5boost13re_detail_50031cpp_regex_traits_implementationIcE20lookup_classname_impEPKcS4_E5masks, symObjAddr: 0xFDE0, symBinAddr: 0x1D850, symSize: 0x0 }
  - { offset: 0x95DDA, size: 0x8, addend: 0x0, symName: __ZN5boost13re_detail_50018basic_regex_parserIcNS_12regex_traitsIcNS_16cpp_regex_traitsIcEEEEE21parse_extended_escapeEv, symObjAddr: 0x4C98, symBinAddr: 0x63F4, symSize: 0x9F4 }
  - { offset: 0x95E01, size: 0x8, addend: 0x0, symName: __ZZN5boost13re_detail_50018basic_regex_parserIcNS_12regex_traitsIcNS_16cpp_regex_traitsIcEEEEE21parse_extended_escapeEvE18incomplete_message, symObjAddr: 0xFED0, symBinAddr: 0x1D940, symSize: 0x0 }
  - { offset: 0x9718F, size: 0x8, addend: 0x0, symName: __ZN5boost13re_detail_50018basic_regex_parserIcNS_12regex_traitsIcNS_16cpp_regex_traitsIcEEEEE18parse_repeat_rangeEb, symObjAddr: 0x5AFC, symBinAddr: 0x7258, symSize: 0x548 }
  - { offset: 0x971B6, size: 0x8, addend: 0x0, symName: __ZZN5boost13re_detail_50018basic_regex_parserIcNS_12regex_traitsIcNS_16cpp_regex_traitsIcEEEEE18parse_repeat_rangeEbE18incomplete_message, symObjAddr: 0xFF10, symBinAddr: 0x1D980, symSize: 0x0 }
  - { offset: 0x97766, size: 0x8, addend: 0x0, symName: __ZN5boost13re_detail_50018basic_regex_parserIcNS_12regex_traitsIcNS_16cpp_regex_traitsIcEEEEE9parse_setEv, symObjAddr: 0x62A2, symBinAddr: 0x79FE, symSize: 0x2B2 }
  - { offset: 0x9778D, size: 0x8, addend: 0x0, symName: __ZZN5boost13re_detail_50018basic_regex_parserIcNS_12regex_traitsIcNS_16cpp_regex_traitsIcEEEEE9parse_setEvE18incomplete_message, symObjAddr: 0xFF40, symBinAddr: 0x1D9B0, symSize: 0x0 }
  - { offset: 0x982C3, size: 0x8, addend: 0x0, symName: __ZN5boost13re_detail_50018basic_regex_parserIcNS_12regex_traitsIcNS_16cpp_regex_traitsIcEEEEE15parse_inner_setERNS0_14basic_char_setIcS5_EE, symObjAddr: 0xAF5E, symBinAddr: 0xC536, symSize: 0x508 }
  - { offset: 0x982EA, size: 0x8, addend: 0x0, symName: __ZZN5boost13re_detail_50018basic_regex_parserIcNS_12regex_traitsIcNS_16cpp_regex_traitsIcEEEEE15parse_inner_setERNS0_14basic_char_setIcS5_EEE18incomplete_message, symObjAddr: 0xFFC0, symBinAddr: 0x1DA30, symSize: 0x0 }
  - { offset: 0x98D3F, size: 0x8, addend: 0x0, symName: __ZN5boost13re_detail_50018basic_regex_parserIcNS_12regex_traitsIcNS_16cpp_regex_traitsIcEEEEE14add_emacs_codeEb, symObjAddr: 0xBF30, symBinAddr: 0xD4CC, symSize: 0x520 }
  - { offset: 0x98D66, size: 0x8, addend: 0x0, symName: __ZZN5boost13re_detail_50018basic_regex_parserIcNS_12regex_traitsIcNS_16cpp_regex_traitsIcEEEEE14add_emacs_codeEbE7s_punct, symObjAddr: 0x10036, symBinAddr: 0x1DAA6, symSize: 0x0 }
  - { offset: 0x9BE95, size: 0x8, addend: 0x0, symName: __ZNK5boost13re_detail_50031cpp_regex_traits_implementationIcE9transformEPKcS4_, symObjAddr: 0x28B4, symBinAddr: 0x4130, symSize: 0x212 }
  - { offset: 0x9C95F, size: 0x8, addend: 0x0, symName: __ZN5boost13re_detail_50019basic_regex_creatorIcNS_12regex_traitsIcNS_16cpp_regex_traitsIcEEEEE10append_setERKNS0_14basic_char_setIcS5_EE, symObjAddr: 0x8CDA, symBinAddr: 0xA436, symSize: 0x1A }
  - { offset: 0x9CCE5, size: 0x8, addend: 0x0, symName: __ZN10GrammarPtrC2ENSt3__110shared_ptrI12LanguageTreeEEm, symObjAddr: 0x0, symBinAddr: 0x19E0, symSize: 0x22 }
  - { offset: 0x9CDFA, size: 0x8, addend: 0x0, symName: __ZN10GrammarPtrC1ENSt3__110shared_ptrI12LanguageTreeEEm, symObjAddr: 0x22, symBinAddr: 0x1A02, symSize: 0x22 }
  - { offset: 0x9CF53, size: 0x8, addend: 0x0, symName: __ZNK10GrammarPtrptEv, symObjAddr: 0x44, symBinAddr: 0x1A24, symSize: 0x14 }
  - { offset: 0x9CFBA, size: 0x8, addend: 0x0, symName: __ZNK10GrammarPtr3getEv, symObjAddr: 0x58, symBinAddr: 0x1A38, symSize: 0x14 }
  - { offset: 0x9CFFB, size: 0x8, addend: 0x0, symName: __ZN10PatternPtrC2ENSt3__110shared_ptrI12LanguageTreeEEm, symObjAddr: 0x6C, symBinAddr: 0x1A4C, symSize: 0x22 }
  - { offset: 0x9D10B, size: 0x8, addend: 0x0, symName: __ZN10PatternPtrC1ENSt3__110shared_ptrI12LanguageTreeEEm, symObjAddr: 0x8E, symBinAddr: 0x1A6E, symSize: 0x22 }
  - { offset: 0x9D22C, size: 0x8, addend: 0x0, symName: __ZNK10PatternPtr3getEv, symObjAddr: 0xB0, symBinAddr: 0x1A90, symSize: 0x14 }
  - { offset: 0x9D317, size: 0x8, addend: 0x0, symName: __ZN10PatternRaw7realizeEv, symObjAddr: 0xC4, symBinAddr: 0x1AA4, symSize: 0x3A }
  - { offset: 0x9D3E9, size: 0x8, addend: 0x0, symName: __ZNK7Pattern6insideEv, symObjAddr: 0xFE, symBinAddr: 0x1ADE, symSize: 0x1E }
  - { offset: 0x9D752, size: 0x8, addend: 0x0, symName: __ZNSt3__120__shared_ptr_emplaceI7PatternNS_9allocatorIS1_EEEC2B8ne180100IJRNS_12basic_stringIcNS_11char_traitsIcEENS2_IcEEEERjRbSD_SB_RNS_10shared_ptrI10GrammarPtrEEES3_Li0EEES3_DpOT_, symObjAddr: 0x1D0, symBinAddr: 0x1BB0, symSize: 0x50 }
  - { offset: 0x9DAB6, size: 0x8, addend: 0x0, symName: __ZNSt3__120__shared_ptr_emplaceI7PatternNS_9allocatorIS1_EEED1Ev, symObjAddr: 0x220, symBinAddr: 0x1C00, symSize: 0x18 }
  - { offset: 0x9DB11, size: 0x8, addend: 0x0, symName: __ZNSt3__120__shared_ptr_emplaceI7PatternNS_9allocatorIS1_EEED0Ev, symObjAddr: 0x238, symBinAddr: 0x1C18, symSize: 0x2A }
  - { offset: 0x9DBF4, size: 0x8, addend: 0x0, symName: __ZNSt3__120__shared_ptr_emplaceI7PatternNS_9allocatorIS1_EEE16__on_zero_sharedEv, symObjAddr: 0x262, symBinAddr: 0x1C42, symSize: 0xE }
  - { offset: 0x9DC88, size: 0x8, addend: 0x0, symName: __ZNSt3__120__shared_ptr_emplaceI7PatternNS_9allocatorIS1_EEE21__on_zero_shared_weakEv, symObjAddr: 0x270, symBinAddr: 0x1C50, symSize: 0xA }
  - { offset: 0x9E041, size: 0x8, addend: 0x0, symName: __ZNSt3__112basic_stringIcNS_11char_traitsIcEENS_9allocatorIcEEE25__init_copy_ctor_externalEPKcm, symObjAddr: 0x39E, symBinAddr: 0x1D7E, symSize: 0x84 }
  - { offset: 0x9E486, size: 0x8, addend: 0x0, symName: __ZN7PatternC2ENSt3__117basic_string_viewIcNS0_11char_traitsIcEEEEjbbNS0_12basic_stringIcS3_NS0_9allocatorIcEEEENS0_10shared_ptrI10GrammarPtrEE, symObjAddr: 0x4B0, symBinAddr: 0x1E74, symSize: 0x14A }
  - { offset: 0x9EDF4, size: 0x8, addend: 0x0, symName: __ZNSt3__110shared_ptrI10GrammarPtrED2B8ne180100Ev, symObjAddr: 0xE402, symBinAddr: 0xF60A, symSize: 0x3F }
  - { offset: 0x9F05B, size: 0x8, addend: 0x0, symName: __ZNSt3__120__throw_length_errorB8ne180100EPKc, symObjAddr: 0x432, symBinAddr: 0x1E02, symSize: 0x4C }
  - { offset: 0x9F066, size: 0x8, addend: 0x0, symName: __ZNSt12length_errorC1B8ne180100EPKc, symObjAddr: 0x47E, symBinAddr: 0x1E4E, symSize: 0x23 }
  - { offset: 0x9F288, size: 0x8, addend: 0x0, symName: __ZN5boost11basic_regexIcNS_12regex_traitsIcNS_16cpp_regex_traitsIcEEEEEC2INSt3__111char_traitsIcEENS7_9allocatorIcEEEERKNS7_12basic_stringIcT_T0_EEj, symObjAddr: 0x5FA, symBinAddr: 0x1FBE, symSize: 0x4C }
  - { offset: 0x9F540, size: 0x8, addend: 0x0, symName: __ZN5boost11basic_regexIcNS_12regex_traitsIcNS_16cpp_regex_traitsIcEEEEE9do_assignEPKcS7_j, symObjAddr: 0x646, symBinAddr: 0x200A, symSize: 0x14C }
  - { offset: 0x9FD9A, size: 0x8, addend: 0x0, symName: __ZNSt3__110shared_ptrIN5boost13re_detail_50026basic_regex_implementationIcNS1_12regex_traitsIcNS1_16cpp_regex_traitsIcEEEEEEEC2B8ne180100IS8_vEEPT_, symObjAddr: 0x3504, symBinAddr: 0x4D04, symSize: 0x68 }
  - { offset: 0x9FF76, size: 0x8, addend: 0x0, symName: __ZN5boost13re_detail_50010regex_dataIcNS_12regex_traitsIcNS_16cpp_regex_traitsIcEEEEEC2Ev, symObjAddr: 0x872, symBinAddr: 0x2236, symSize: 0x92 }
  - { offset: 0xA027C, size: 0x8, addend: 0x0, symName: __ZN5boost13re_detail_50026basic_regex_implementationIcNS_12regex_traitsIcNS_16cpp_regex_traitsIcEEEEE6assignEPKcS8_j, symObjAddr: 0x792, symBinAddr: 0x2156, symSize: 0xE0 }
  - { offset: 0xA09A5, size: 0x8, addend: 0x0, symName: __ZN5boost13re_detail_50018basic_regex_parserIcNS_12regex_traitsIcNS_16cpp_regex_traitsIcEEEEE5parseEPKcS8_j, symObjAddr: 0x3626, symBinAddr: 0x4E26, symSize: 0x21C }
  - { offset: 0xA0EC7, size: 0x8, addend: 0x0, symName: __ZN5boost13re_detail_50018basic_regex_parserIcNS_12regex_traitsIcNS_16cpp_regex_traitsIcEEEEED1Ev, symObjAddr: 0x3842, symBinAddr: 0x5042, symSize: 0x40 }
  - { offset: 0xA1350, size: 0x8, addend: 0x0, symName: __ZN5boost16cpp_regex_traitsIcEC2Ev, symObjAddr: 0x904, symBinAddr: 0x22C8, symSize: 0x74 }
  - { offset: 0xA148A, size: 0x8, addend: 0x0, symName: __ZNSt3__110shared_ptrIN5boost20regex_traits_wrapperINS1_12regex_traitsIcNS1_16cpp_regex_traitsIcEEEEEEEC2B8ne180100IS7_vEEPT_, symObjAddr: 0x33F0, symBinAddr: 0x4C30, symSize: 0x5C }
  - { offset: 0xA1770, size: 0x8, addend: 0x0, symName: __ZN5boost13re_detail_50021cpp_regex_traits_baseIcEC2ERKNSt3__16localeE, symObjAddr: 0xA1C, symBinAddr: 0x23E0, symSize: 0x4A }
  - { offset: 0xA1875, size: 0x8, addend: 0x0, symName: __ZN5boost13re_detail_50021cpp_regex_traits_baseIcE5imbueERKNSt3__16localeE, symObjAddr: 0xA66, symBinAddr: 0x242A, symSize: 0x9C }
  - { offset: 0xA25FC, size: 0x8, addend: 0x0, symName: __ZNSt3__16__treeINS_12__value_typeIN5boost13re_detail_50021cpp_regex_traits_baseIcEENS_15__list_iteratorINS_4pairINS_10shared_ptrIKNS3_31cpp_regex_traits_implementationIcEEEEPKS5_EEPvEEEENS_19__map_value_compareIS5_SI_NS_4lessIS5_EELb1EEENS_9allocatorISI_EEE4findIS5_EENS_15__tree_iteratorISI_PNS_11__tree_nodeISI_SG_EElEERKT_, symObjAddr: 0x119A, symBinAddr: 0x2B5E, symSize: 0x4A }
  - { offset: 0xA274B, size: 0x8, addend: 0x0, symName: __ZNSt3__110__list_impINS_4pairINS_10shared_ptrIKN5boost13re_detail_50031cpp_regex_traits_implementationIcEEEEPKNS4_21cpp_regex_traits_baseIcEEEENS_9allocatorISD_EEE5clearEv, symObjAddr: 0x122A, symBinAddr: 0x2BEE, symSize: 0x62 }
  - { offset: 0xA2A02, size: 0x8, addend: 0x0, symName: __ZN5boost13re_detail_50031cpp_regex_traits_implementationIcEC2ERKNS0_21cpp_regex_traits_baseIcEE, symObjAddr: 0x128C, symBinAddr: 0x2C50, symSize: 0xC4 }
  - { offset: 0xA2F5B, size: 0x8, addend: 0x0, symName: __ZNSt3__110shared_ptrIKN5boost13re_detail_50031cpp_regex_traits_implementationIcEEEC2B8ne180100IS4_vEEPT_, symObjAddr: 0x2C74, symBinAddr: 0x44F0, symSize: 0x68 }
  - { offset: 0xA3137, size: 0x8, addend: 0x0, symName: __ZNSt3__16__treeINS_12__value_typeIN5boost13re_detail_50021cpp_regex_traits_baseIcEENS_15__list_iteratorINS_4pairINS_10shared_ptrIKNS3_31cpp_regex_traits_implementationIcEEEEPKS5_EEPvEEEENS_19__map_value_compareIS5_SI_NS_4lessIS5_EELb1EEENS_9allocatorISI_EEE25__emplace_unique_key_argsIS5_JNS7_IS5_SH_EEEEENS7_INS_15__tree_iteratorISI_PNS_11__tree_nodeISI_SG_EElEEbEERKT_DpOT0_, symObjAddr: 0x2D98, symBinAddr: 0x4614, symSize: 0xB4 }
  - { offset: 0xA357F, size: 0x8, addend: 0x0, symName: __ZNSt3__16__treeINS_12__value_typeIN5boost13re_detail_50021cpp_regex_traits_baseIcEENS_15__list_iteratorINS_4pairINS_10shared_ptrIKNS3_31cpp_regex_traits_implementationIcEEEEPKS5_EEPvEEEENS_19__map_value_compareIS5_SI_NS_4lessIS5_EELb1EEENS_9allocatorISI_EEE25__emplace_unique_key_argsIS5_JRKNS_21piecewise_construct_tENS_5tupleIJRSD_EEENSU_IJEEEEEENS7_INS_15__tree_iteratorISI_PNS_11__tree_nodeISI_SG_EElEEbEERKT_DpOT0_, symObjAddr: 0x2F22, symBinAddr: 0x4762, symSize: 0xB2 }
  - { offset: 0xA3A45, size: 0x8, addend: 0x0, symName: __ZNSt3__16__treeINS_12__value_typeIN5boost13re_detail_50021cpp_regex_traits_baseIcEENS_15__list_iteratorINS_4pairINS_10shared_ptrIKNS3_31cpp_regex_traits_implementationIcEEEEPKS5_EEPvEEEENS_19__map_value_compareIS5_SI_NS_4lessIS5_EELb1EEENS_9allocatorISI_EEE14__erase_uniqueIS5_EEmRKT_, symObjAddr: 0x2FD4, symBinAddr: 0x4814, symSize: 0x48 }
  - { offset: 0xA3D02, size: 0x8, addend: 0x0, symName: __ZNSt3__110shared_ptrIKN5boost13re_detail_50031cpp_regex_traits_implementationIcEEED2B8ne180100Ev, symObjAddr: 0x33B0, symBinAddr: 0x4BF0, symSize: 0x40 }
  - { offset: 0xA3E52, size: 0x8, addend: 0x0, symName: __ZN5boost12object_cacheINS_13re_detail_50021cpp_regex_traits_baseIcEENS1_31cpp_regex_traits_implementationIcEEE4dataD1Ev, symObjAddr: 0x113A, symBinAddr: 0x2AFE, symSize: 0x24 }
  - { offset: 0xA3FB7, size: 0x8, addend: 0x0, symName: __ZNSt3__16__treeINS_12__value_typeIN5boost13re_detail_50021cpp_regex_traits_baseIcEENS_15__list_iteratorINS_4pairINS_10shared_ptrIKNS3_31cpp_regex_traits_implementationIcEEEEPKS5_EEPvEEEENS_19__map_value_compareIS5_SI_NS_4lessIS5_EELb1EEENS_9allocatorISI_EEE7destroyEPNS_11__tree_nodeISI_SG_EE, symObjAddr: 0x115E, symBinAddr: 0x2B22, symSize: 0x3C }
  - { offset: 0xA432E, size: 0x8, addend: 0x0, symName: __ZNSt3__16__treeINS_12__value_typeIN5boost13re_detail_50021cpp_regex_traits_baseIcEENS_15__list_iteratorINS_4pairINS_10shared_ptrIKNS3_31cpp_regex_traits_implementationIcEEEEPKS5_EEPvEEEENS_19__map_value_compareIS5_SI_NS_4lessIS5_EELb1EEENS_9allocatorISI_EEE13__lower_boundIS5_EENS_15__tree_iteratorISI_PNS_11__tree_nodeISI_SG_EElEERKT_SU_PNS_15__tree_end_nodeIPNS_16__tree_node_baseISG_EEEE, symObjAddr: 0x11E4, symBinAddr: 0x2BA8, symSize: 0x46 }
  - { offset: 0xA4961, size: 0x8, addend: 0x0, symName: __ZN5boost13re_detail_50027cpp_regex_traits_char_layerIcEC2ERKNS0_21cpp_regex_traits_baseIcEE, symObjAddr: 0x1350, symBinAddr: 0x2D14, symSize: 0x44 }
  - { offset: 0xA49F9, size: 0x8, addend: 0x0, symName: __ZNSt3__16__treeINS_12__value_typeINS_12basic_stringIcNS_11char_traitsIcEENS_9allocatorIcEEEES7_EENS_19__map_value_compareIS7_S8_NS_4lessIS7_EELb1EEENS5_IS8_EEE7destroyEPNS_11__tree_nodeIS8_PvEE, symObjAddr: 0x2B80, symBinAddr: 0x43FC, symSize: 0x3C }
  - { offset: 0xA4B87, size: 0x8, addend: 0x0, symName: __ZNSt3__16__treeINS_12__value_typeINS_12basic_stringIcNS_11char_traitsIcEENS_9allocatorIcEEEEjEENS_19__map_value_compareIS7_S8_NS_4lessIS7_EELb1EEENS5_IS8_EEE7destroyEPNS_11__tree_nodeIS8_PvEE, symObjAddr: 0x2BF0, symBinAddr: 0x446C, symSize: 0x42 }
  - { offset: 0xA4E93, size: 0x8, addend: 0x0, symName: __ZNSt3__16__treeINS_12__value_typeIiNS_12basic_stringIcNS_11char_traitsIcEENS_9allocatorIcEEEEEENS_19__map_value_compareIiS8_NS_4lessIiEELb1EEENS5_IS8_EEE7destroyEPNS_11__tree_nodeIS8_PvEE, symObjAddr: 0x2C32, symBinAddr: 0x44AE, symSize: 0x42 }
  - { offset: 0xA519F, size: 0x8, addend: 0x0, symName: __ZN5boost13re_detail_50027cpp_regex_traits_char_layerIcE4initEv, symObjAddr: 0x171C, symBinAddr: 0x30E0, symSize: 0x2F2 }
  - { offset: 0xA6293, size: 0x8, addend: 0x0, symName: __ZN5boost16cpp_regex_traitsIcE16get_catalog_nameEv, symObjAddr: 0x1A0E, symBinAddr: 0x33D2, symSize: 0x67 }
  - { offset: 0xA641F, size: 0x8, addend: 0x0, symName: __ZNSt3__16__treeINS_12__value_typeIiNS_12basic_stringIcNS_11char_traitsIcEENS_9allocatorIcEEEEEENS_19__map_value_compareIiS8_NS_4lessIiEELb1EEENS5_IS8_EEE25__emplace_unique_key_argsIiJRKNS_21piecewise_construct_tENS_5tupleIJOiEEENSJ_IJEEEEEENS_4pairINS_15__tree_iteratorIS8_PNS_11__tree_nodeIS8_PvEElEEbEERKT_DpOT0_, symObjAddr: 0x240A, symBinAddr: 0x3CC2, symSize: 0xA0 }
  - { offset: 0xA6824, size: 0x8, addend: 0x0, symName: __ZNSt3__16__treeINS_12__value_typeINS_12basic_stringIcNS_11char_traitsIcEENS_9allocatorIcEEEEjEENS_19__map_value_compareIS7_S8_NS_4lessIS7_EELb1EEENS5_IS8_EEE25__emplace_unique_key_argsIS7_JRKNS_21piecewise_construct_tENS_5tupleIJRKS7_EEENSJ_IJEEEEEENS_4pairINS_15__tree_iteratorIS8_PNS_11__tree_nodeIS8_PvEElEEbEERKT_DpOT0_, symObjAddr: 0x264A, symBinAddr: 0x3F02, symSize: 0x7C }
  - { offset: 0xA69DA, size: 0x8, addend: 0x0, symName: __ZNSt3__112basic_stringIcNS_11char_traitsIcEENS_9allocatorIcEEEC2B8ne180100ILi0EEEPKc, symObjAddr: 0x1BDC, symBinAddr: 0x35A0, symSize: 0x94 }
  - { offset: 0xA6F44, size: 0x8, addend: 0x0, symName: __ZNSt3__112basic_stringIcNS_11char_traitsIcEENS_9allocatorIcEEEC2B8ne180100ENS_24__uninitialized_size_tagEmRKS4_, symObjAddr: 0x1C70, symBinAddr: 0x3634, symSize: 0x79 }
  - { offset: 0xA717F, size: 0x8, addend: 0x0, symName: __ZN5boost15throw_exceptionISt13runtime_errorEEvRKT_, symObjAddr: 0x1CE9, symBinAddr: 0x36AD, symSize: 0x4B }
  - { offset: 0xA71DA, size: 0x8, addend: 0x0, symName: __ZN5boost10wrapexceptISt13runtime_errorEC1ERKS1_, symObjAddr: 0x1D34, symBinAddr: 0x36F8, symSize: 0x5C }
  - { offset: 0xA733E, size: 0x8, addend: 0x0, symName: __ZN5boost10wrapexceptISt13runtime_errorED1Ev, symObjAddr: 0x1D90, symBinAddr: 0x3754, symSize: 0x34 }
  - { offset: 0xA7532, size: 0x8, addend: 0x0, symName: __ZNK5boost10wrapexceptISt13runtime_errorE5cloneEv, symObjAddr: 0x1DC4, symBinAddr: 0x3788, symSize: 0xD4 }
  - { offset: 0xA7706, size: 0x8, addend: 0x0, symName: __ZNK5boost10wrapexceptISt13runtime_errorE7rethrowEv, symObjAddr: 0x1E98, symBinAddr: 0x385C, symSize: 0x4C }
  - { offset: 0xA7743, size: 0x8, addend: 0x0, symName: __ZN5boost10wrapexceptISt13runtime_errorEC1ERKS2_, symObjAddr: 0x2034, symBinAddr: 0x39BC, symSize: 0x9D }
  - { offset: 0xA787E, size: 0x8, addend: 0x0, symName: __ZN5boost10wrapexceptISt13runtime_errorED0Ev, symObjAddr: 0x1EE4, symBinAddr: 0x38A8, symSize: 0x38 }
  - { offset: 0xA7938, size: 0x8, addend: 0x0, symName: __ZThn8_N5boost10wrapexceptISt13runtime_errorED1Ev, symObjAddr: 0x1F1C, symBinAddr: 0x38E0, symSize: 0x30 }
  - { offset: 0xA79F7, size: 0x8, addend: 0x0, symName: __ZThn8_N5boost10wrapexceptISt13runtime_errorED0Ev, symObjAddr: 0x1F4C, symBinAddr: 0x3910, symSize: 0x3A }
  - { offset: 0xA7AC4, size: 0x8, addend: 0x0, symName: __ZThn24_N5boost10wrapexceptISt13runtime_errorED1Ev, symObjAddr: 0x1F86, symBinAddr: 0x394A, symSize: 0x32 }
  - { offset: 0xA7B65, size: 0x8, addend: 0x0, symName: __ZThn24_N5boost10wrapexceptISt13runtime_errorED0Ev, symObjAddr: 0x1FB8, symBinAddr: 0x397C, symSize: 0x3E }
  - { offset: 0xA7C30, size: 0x8, addend: 0x0, symName: __ZN5boost16exception_detail10clone_baseD0Ev, symObjAddr: 0x1FFC, symBinAddr: 0x1C6F8, symSize: 0x6 }
  - { offset: 0xA80F2, size: 0x8, addend: 0x0, symName: __ZNSt3__16__treeINS_12__value_typeIiNS_12basic_stringIcNS_11char_traitsIcEENS_9allocatorIcEEEEEENS_19__map_value_compareIiS8_NS_4lessIiEELb1EEENS5_IS8_EEE16__insert_node_atEPNS_15__tree_end_nodeIPNS_16__tree_node_baseIPvEEEERSJ_SJ_, symObjAddr: 0x24AA, symBinAddr: 0x3D62, symSize: 0x3E }
  - { offset: 0xA81DD, size: 0x8, addend: 0x0, symName: __ZNSt3__16__treeINS_12__value_typeINS_12basic_stringIcNS_11char_traitsIcEENS_9allocatorIcEEEEjEENS_19__map_value_compareIS7_S8_NS_4lessIS7_EELb1EEENS5_IS8_EEE12__find_equalIS7_EERPNS_16__tree_node_baseIPvEERPNS_15__tree_end_nodeISJ_EERKT_, symObjAddr: 0x26C6, symBinAddr: 0x3F7E, symSize: 0x7A }
  - { offset: 0xA83A8, size: 0x8, addend: 0x0, symName: __ZNSt3__16__treeINS_12__value_typeINS_12basic_stringIcNS_11char_traitsIcEENS_9allocatorIcEEEEjEENS_19__map_value_compareIS7_S8_NS_4lessIS7_EELb1EEENS5_IS8_EEE16__construct_nodeIJRKNS_21piecewise_construct_tENS_5tupleIJRKS7_EEENSJ_IJEEEEEENS_10unique_ptrINS_11__tree_nodeIS8_PvEENS_22__tree_node_destructorINS5_ISR_EEEEEEDpOT_, symObjAddr: 0x2740, symBinAddr: 0x3FF8, symSize: 0x96 }
  - { offset: 0xA8C7F, size: 0x8, addend: 0x0, symName: __ZNSt3__122__tree_node_destructorINS_9allocatorINS_11__tree_nodeINS_12__value_typeINS_12basic_stringIcNS_11char_traitsIcEENS1_IcEEEEjEEPvEEEEEclB8ne180100EPSB_, symObjAddr: 0x287A, symBinAddr: 0x40F6, symSize: 0x3A }
  - { offset: 0xA9155, size: 0x8, addend: 0x0, symName: __ZNK5boost13re_detail_50031cpp_regex_traits_implementationIcE9transformEPKcS4_.cold.2, symObjAddr: 0xE484, symBinAddr: 0x1C714, symSize: 0x23 }
  - { offset: 0xA916D, size: 0x8, addend: 0x0, symName: __ZNK5boost13re_detail_50031cpp_regex_traits_implementationIcE9transformEPKcS4_.cold.1, symObjAddr: 0xE470, symBinAddr: 0x1C700, symSize: 0x14 }
  - { offset: 0xA9281, size: 0x8, addend: 0x0, symName: __ZNSt12out_of_rangeC1B8ne180100EPKc, symObjAddr: 0x2B5C, symBinAddr: 0x43D8, symSize: 0x24 }
  - { offset: 0xA979B, size: 0x8, addend: 0x0, symName: __ZNKSt3__114default_deleteIN5boost13re_detail_50031cpp_regex_traits_implementationIcEEEclB8ne180100EPS4_, symObjAddr: 0x2D3A, symBinAddr: 0x45B6, symSize: 0x5E }
  - { offset: 0xA9A84, size: 0x8, addend: 0x0, symName: __ZNSt3__120__shared_ptr_pointerIPN5boost13re_detail_50031cpp_regex_traits_implementationIcEENS_10shared_ptrIKS4_E27__shared_ptr_default_deleteIS7_S4_EENS_9allocatorIS4_EEED1Ev, symObjAddr: 0x2CDC, symBinAddr: 0x4558, symSize: 0xA }
  - { offset: 0xA9ADF, size: 0x8, addend: 0x0, symName: __ZNSt3__120__shared_ptr_pointerIPN5boost13re_detail_50031cpp_regex_traits_implementationIcEENS_10shared_ptrIKS4_E27__shared_ptr_default_deleteIS7_S4_EENS_9allocatorIS4_EEED0Ev, symObjAddr: 0x2CE6, symBinAddr: 0x4562, symSize: 0x1C }
  - { offset: 0xA9B56, size: 0x8, addend: 0x0, symName: __ZNSt3__120__shared_ptr_pointerIPN5boost13re_detail_50031cpp_regex_traits_implementationIcEENS_10shared_ptrIKS4_E27__shared_ptr_default_deleteIS7_S4_EENS_9allocatorIS4_EEE16__on_zero_sharedEv, symObjAddr: 0x2D02, symBinAddr: 0x457E, symSize: 0x12 }
  - { offset: 0xA9BD4, size: 0x8, addend: 0x0, symName: __ZNKSt3__120__shared_ptr_pointerIPN5boost13re_detail_50031cpp_regex_traits_implementationIcEENS_10shared_ptrIKS4_E27__shared_ptr_default_deleteIS7_S4_EENS_9allocatorIS4_EEE13__get_deleterERKSt9type_info, symObjAddr: 0x2D14, symBinAddr: 0x4590, symSize: 0x1C }
  - { offset: 0xA9C82, size: 0x8, addend: 0x0, symName: __ZNSt3__120__shared_ptr_pointerIPN5boost13re_detail_50031cpp_regex_traits_implementationIcEENS_10shared_ptrIKS4_E27__shared_ptr_default_deleteIS7_S4_EENS_9allocatorIS4_EEE21__on_zero_shared_weakEv, symObjAddr: 0x2D30, symBinAddr: 0x45AC, symSize: 0xA }
  - { offset: 0xAA102, size: 0x8, addend: 0x0, symName: __ZNSt3__16__treeINS_12__value_typeIN5boost13re_detail_50021cpp_regex_traits_baseIcEENS_15__list_iteratorINS_4pairINS_10shared_ptrIKNS3_31cpp_regex_traits_implementationIcEEEEPKS5_EEPvEEEENS_19__map_value_compareIS5_SI_NS_4lessIS5_EELb1EEENS_9allocatorISI_EEE12__find_equalIS5_EERPNS_16__tree_node_baseISG_EERPNS_15__tree_end_nodeIST_EERKT_, symObjAddr: 0x2E4C, symBinAddr: 0x46C8, symSize: 0x62 }
  - { offset: 0xAA24E, size: 0x8, addend: 0x0, symName: __ZNSt3__110unique_ptrINS_11__tree_nodeINS_12__value_typeIN5boost13re_detail_50021cpp_regex_traits_baseIcEENS_15__list_iteratorINS_4pairINS_10shared_ptrIKNS4_31cpp_regex_traits_implementationIcEEEEPKS6_EEPvEEEESH_EENS_22__tree_node_destructorINS_9allocatorISK_EEEEE5resetB8ne180100EPSK_, symObjAddr: 0x2EEC, symBinAddr: 0x472C, symSize: 0x36 }
  - { offset: 0xAA76A, size: 0x8, addend: 0x0, symName: __ZNSt3__16__treeINS_12__value_typeIN5boost13re_detail_50021cpp_regex_traits_baseIcEENS_15__list_iteratorINS_4pairINS_10shared_ptrIKNS3_31cpp_regex_traits_implementationIcEEEEPKS5_EEPvEEEENS_19__map_value_compareIS5_SI_NS_4lessIS5_EELb1EEENS_9allocatorISI_EEE21__remove_node_pointerEPNS_11__tree_nodeISI_SG_EE, symObjAddr: 0x301C, symBinAddr: 0x485C, symSize: 0x4A }
  - { offset: 0xAAC09, size: 0x8, addend: 0x0, symName: __ZNSt3__120__shared_ptr_pointerIPN5boost20regex_traits_wrapperINS1_12regex_traitsIcNS1_16cpp_regex_traitsIcEEEEEENS_10shared_ptrIS7_E27__shared_ptr_default_deleteIS7_S7_EENS_9allocatorIS7_EEED1Ev, symObjAddr: 0x344C, symBinAddr: 0x4C8C, symSize: 0xA }
  - { offset: 0xAAC64, size: 0x8, addend: 0x0, symName: __ZNSt3__120__shared_ptr_pointerIPN5boost20regex_traits_wrapperINS1_12regex_traitsIcNS1_16cpp_regex_traitsIcEEEEEENS_10shared_ptrIS7_E27__shared_ptr_default_deleteIS7_S7_EENS_9allocatorIS7_EEED0Ev, symObjAddr: 0x3456, symBinAddr: 0x4C96, symSize: 0x1C }
  - { offset: 0xAACDB, size: 0x8, addend: 0x0, symName: __ZNSt3__120__shared_ptr_pointerIPN5boost20regex_traits_wrapperINS1_12regex_traitsIcNS1_16cpp_regex_traitsIcEEEEEENS_10shared_ptrIS7_E27__shared_ptr_default_deleteIS7_S7_EENS_9allocatorIS7_EEE16__on_zero_sharedEv, symObjAddr: 0x3472, symBinAddr: 0x4CB2, symSize: 0x2C }
  - { offset: 0xAADDD, size: 0x8, addend: 0x0, symName: __ZNKSt3__120__shared_ptr_pointerIPN5boost20regex_traits_wrapperINS1_12regex_traitsIcNS1_16cpp_regex_traitsIcEEEEEENS_10shared_ptrIS7_E27__shared_ptr_default_deleteIS7_S7_EENS_9allocatorIS7_EEE13__get_deleterERKSt9type_info, symObjAddr: 0x349E, symBinAddr: 0x4CDE, symSize: 0x1C }
  - { offset: 0xAAE8B, size: 0x8, addend: 0x0, symName: __ZNSt3__120__shared_ptr_pointerIPN5boost20regex_traits_wrapperINS1_12regex_traitsIcNS1_16cpp_regex_traitsIcEEEEEENS_10shared_ptrIS7_E27__shared_ptr_default_deleteIS7_S7_EENS_9allocatorIS7_EEE21__on_zero_shared_weakEv, symObjAddr: 0x34BA, symBinAddr: 0x4CFA, symSize: 0xA }
  - { offset: 0xAB2D2, size: 0x8, addend: 0x0, symName: __ZNKSt3__114default_deleteIN5boost13re_detail_50026basic_regex_implementationIcNS1_12regex_traitsIcNS1_16cpp_regex_traitsIcEEEEEEEclB8ne180100EPS8_, symObjAddr: 0x35CA, symBinAddr: 0x4DCA, symSize: 0x5C }
  - { offset: 0xAB6D7, size: 0x8, addend: 0x0, symName: __ZNSt3__120__shared_ptr_pointerIPN5boost13re_detail_50026basic_regex_implementationIcNS1_12regex_traitsIcNS1_16cpp_regex_traitsIcEEEEEENS_10shared_ptrIS8_E27__shared_ptr_default_deleteIS8_S8_EENS_9allocatorIS8_EEED1Ev, symObjAddr: 0x356C, symBinAddr: 0x4D6C, symSize: 0xA }
  - { offset: 0xAB732, size: 0x8, addend: 0x0, symName: __ZNSt3__120__shared_ptr_pointerIPN5boost13re_detail_50026basic_regex_implementationIcNS1_12regex_traitsIcNS1_16cpp_regex_traitsIcEEEEEENS_10shared_ptrIS8_E27__shared_ptr_default_deleteIS8_S8_EENS_9allocatorIS8_EEED0Ev, symObjAddr: 0x3576, symBinAddr: 0x4D76, symSize: 0x1C }
  - { offset: 0xAB7A9, size: 0x8, addend: 0x0, symName: __ZNSt3__120__shared_ptr_pointerIPN5boost13re_detail_50026basic_regex_implementationIcNS1_12regex_traitsIcNS1_16cpp_regex_traitsIcEEEEEENS_10shared_ptrIS8_E27__shared_ptr_default_deleteIS8_S8_EENS_9allocatorIS8_EEE16__on_zero_sharedEv, symObjAddr: 0x3592, symBinAddr: 0x4D92, symSize: 0x12 }
  - { offset: 0xAB7DF, size: 0x8, addend: 0x0, symName: __ZNKSt3__120__shared_ptr_pointerIPN5boost13re_detail_50026basic_regex_implementationIcNS1_12regex_traitsIcNS1_16cpp_regex_traitsIcEEEEEENS_10shared_ptrIS8_E27__shared_ptr_default_deleteIS8_S8_EENS_9allocatorIS8_EEE13__get_deleterERKSt9type_info, symObjAddr: 0x35A4, symBinAddr: 0x4DA4, symSize: 0x1C }
  - { offset: 0xAB88D, size: 0x8, addend: 0x0, symName: __ZNSt3__120__shared_ptr_pointerIPN5boost13re_detail_50026basic_regex_implementationIcNS1_12regex_traitsIcNS1_16cpp_regex_traitsIcEEEEEENS_10shared_ptrIS8_E27__shared_ptr_default_deleteIS8_S8_EENS_9allocatorIS8_EEE21__on_zero_shared_weakEv, symObjAddr: 0x35C0, symBinAddr: 0x4DC0, symSize: 0xA }
  - { offset: 0xABB77, size: 0x8, addend: 0x0, symName: __ZN5boost13re_detail_50018basic_regex_parserIcNS_12regex_traitsIcNS_16cpp_regex_traitsIcEEEEE4failENS_15regex_constants10error_typeEl, symObjAddr: 0x3D8E, symBinAddr: 0x558E, symSize: 0x78 }
  - { offset: 0xABF07, size: 0x8, addend: 0x0, symName: __ZN5boost13re_detail_50019basic_regex_creatorIcNS_12regex_traitsIcNS_16cpp_regex_traitsIcEEEEE12append_stateENS0_19syntax_element_typeEm, symObjAddr: 0x4164, symBinAddr: 0x5964, symSize: 0x7A }
  - { offset: 0xABFD5, size: 0x8, addend: 0x0, symName: __ZN5boost13re_detail_50018basic_regex_parserIcNS_12regex_traitsIcNS_16cpp_regex_traitsIcEEEEE9parse_allEv, symObjAddr: 0x444E, symBinAddr: 0x5C4E, symSize: 0xC6 }
  - { offset: 0xAC30B, size: 0x8, addend: 0x0, symName: __ZN5boost13re_detail_50018basic_regex_parserIcNS_12regex_traitsIcNS_16cpp_regex_traitsIcEEEEE11unwind_altsEl, symObjAddr: 0x4514, symBinAddr: 0x5D14, symSize: 0x15E }
  - { offset: 0xAC5AD, size: 0x8, addend: 0x0, symName: __ZN5boost13re_detail_50018basic_regex_parserIcNS_12regex_traitsIcNS_16cpp_regex_traitsIcEEEEE4failENS_15regex_constants10error_typeElRKNSt3__112basic_stringIcNS9_11char_traitsIcEENS9_9allocatorIcEEEE, symObjAddr: 0x43C8, symBinAddr: 0x5BC8, symSize: 0x86 }
  - { offset: 0xAC967, size: 0x8, addend: 0x0, symName: __ZN5boost13re_detail_50019basic_regex_creatorIcNS_12regex_traitsIcNS_16cpp_regex_traitsIcEEEEE8finalizeEPKcS8_, symObjAddr: 0x4672, symBinAddr: 0x5E72, symSize: 0x1BC }
  - { offset: 0xACC8F, size: 0x8, addend: 0x0, symName: __ZNK5boost13re_detail_50031cpp_regex_traits_implementationIcE16lookup_classnameEPKcS4_, symObjAddr: 0x39F8, symBinAddr: 0x51F8, symSize: 0xC6 }
  - { offset: 0xAD2EB, size: 0x8, addend: 0x0, symName: __ZNSt3__112basic_stringIcNS_11char_traitsIcEENS_9allocatorIcEEE16__init_with_sizeB8ne180100IPKcS8_EEvT_T0_m, symObjAddr: 0x3CFC, symBinAddr: 0x54FC, symSize: 0x92 }
  - { offset: 0xAD612, size: 0x8, addend: 0x0, symName: __ZNKSt3__16__treeINS_12__value_typeINS_12basic_stringIcNS_11char_traitsIcEENS_9allocatorIcEEEEjEENS_19__map_value_compareIS7_S8_NS_4lessIS7_EELb1EEENS5_IS8_EEE4findIS7_EENS_21__tree_const_iteratorIS8_PNS_11__tree_nodeIS8_PvEElEERKT_, symObjAddr: 0x3C0C, symBinAddr: 0x540C, symSize: 0x69 }
  - { offset: 0xAD81F, size: 0x8, addend: 0x0, symName: __ZNK5boost13re_detail_50031cpp_regex_traits_implementationIcE20lookup_classname_impEPKcS4_.cold.1, symObjAddr: 0xE4A7, symBinAddr: 0x1C737, symSize: 0x23 }
  - { offset: 0xADBB2, size: 0x8, addend: 0x0, symName: __ZN5boost13re_detail_50018basic_regex_parserIcNS_12regex_traitsIcNS_16cpp_regex_traitsIcEEEEE14parse_extendedEv, symObjAddr: 0x3E06, symBinAddr: 0x5606, symSize: 0x35E }
  - { offset: 0xAE024, size: 0x8, addend: 0x0, symName: __ZN5boost13re_detail_50018basic_regex_parserIcNS_12regex_traitsIcNS_16cpp_regex_traitsIcEEEEE16parse_open_parenEv, symObjAddr: 0x48D2, symBinAddr: 0x602E, symSize: 0x3C6 }
  - { offset: 0xAE8AA, size: 0x8, addend: 0x0, symName: __ZN5boost13re_detail_50018basic_regex_parserIcNS_12regex_traitsIcNS_16cpp_regex_traitsIcEEEEE12parse_repeatEmm, symObjAddr: 0x568C, symBinAddr: 0x6DE8, symSize: 0x470 }
  - { offset: 0xAF133, size: 0x8, addend: 0x0, symName: __ZN5boost13re_detail_50018basic_regex_parserIcNS_12regex_traitsIcNS_16cpp_regex_traitsIcEEEEE13parse_literalEv, symObjAddr: 0x4370, symBinAddr: 0x5B70, symSize: 0x58 }
  - { offset: 0xAF19F, size: 0x8, addend: 0x0, symName: __ZN5boost13re_detail_50018basic_regex_parserIcNS_12regex_traitsIcNS_16cpp_regex_traitsIcEEEEE9parse_altEv, symObjAddr: 0x6044, symBinAddr: 0x77A0, symSize: 0x25E }
  - { offset: 0xAFB3E, size: 0x8, addend: 0x0, symName: __ZN5boost13re_detail_50011raw_storage6extendEm, symObjAddr: 0xA5BE, symBinAddr: 0xBD1A, symSize: 0x3E }
  - { offset: 0xAFB9B, size: 0x8, addend: 0x0, symName: __ZN5boost13re_detail_50018basic_regex_parserIcNS_12regex_traitsIcNS_16cpp_regex_traitsIcEEEEE11parse_basicEv, symObjAddr: 0x41DE, symBinAddr: 0x59DE, symSize: 0x192 }
  - { offset: 0xAFD2F, size: 0x8, addend: 0x0, symName: __ZN5boost13re_detail_50018basic_regex_parserIcNS_12regex_traitsIcNS_16cpp_regex_traitsIcEEEEE18parse_basic_escapeEv, symObjAddr: 0xBAA8, symBinAddr: 0xD044, symSize: 0x488 }
  - { offset: 0xB0629, size: 0x8, addend: 0x0, symName: __ZN5boost13re_detail_50019basic_regex_creatorIcNS_12regex_traitsIcNS_16cpp_regex_traitsIcEEEEE14append_literalEc, symObjAddr: 0x8D2E, symBinAddr: 0xA48A, symSize: 0xC2 }
  - { offset: 0xB085F, size: 0x8, addend: 0x0, symName: __ZN5boost13re_detail_50018basic_regex_parserIcNS_12regex_traitsIcNS_16cpp_regex_traitsIcEEEEE4failENS_15regex_constants10error_typeElNSt3__112basic_stringIcNS9_11char_traitsIcEENS9_9allocatorIcEEEEl, symObjAddr: 0xC450, symBinAddr: 0xD9EC, symSize: 0x1E4 }
  - { offset: 0xB12E0, size: 0x8, addend: 0x0, symName: __ZN5boost13re_detail_50019basic_regex_creatorIcNS_12regex_traitsIcNS_16cpp_regex_traitsIcEEEEE14fixup_pointersEPNS0_14re_syntax_baseE, symObjAddr: 0xCA52, symBinAddr: 0xDCC6, symSize: 0xC2 }
  - { offset: 0xB132D, size: 0x8, addend: 0x0, symName: __ZN5boost13re_detail_50019basic_regex_creatorIcNS_12regex_traitsIcNS_16cpp_regex_traitsIcEEEEE16fixup_recursionsEPNS0_14re_syntax_baseE, symObjAddr: 0xCB14, symBinAddr: 0xDD88, symSize: 0x1DE }
  - { offset: 0xB1754, size: 0x8, addend: 0x0, symName: __ZN5boost13re_detail_50019basic_regex_creatorIcNS_12regex_traitsIcNS_16cpp_regex_traitsIcEEEEE16create_startmapsEPNS0_14re_syntax_baseE, symObjAddr: 0xCCF2, symBinAddr: 0xDF66, symSize: 0x348 }
  - { offset: 0xB2452, size: 0x8, addend: 0x0, symName: __ZNSt3__16vectorIhNS_9allocatorIhEEE6assignEmRKh, symObjAddr: 0xD03A, symBinAddr: 0xE2AE, symSize: 0xFE }
  - { offset: 0xB2A3E, size: 0x8, addend: 0x0, symName: __ZN5boost13re_detail_50019basic_regex_creatorIcNS_12regex_traitsIcNS_16cpp_regex_traitsIcEEEEE15create_startmapEPNS0_14re_syntax_baseEPhPjh, symObjAddr: 0xD138, symBinAddr: 0xE3AC, symSize: 0xAC0 }
  - { offset: 0xB386D, size: 0x8, addend: 0x0, symName: __ZN5boost13re_detail_50019basic_regex_creatorIcNS_12regex_traitsIcNS_16cpp_regex_traitsIcEEEEE16get_restart_typeEPNS0_14re_syntax_baseE, symObjAddr: 0xDBF8, symBinAddr: 0xEE6C, symSize: 0x52 }
  - { offset: 0xB38A2, size: 0x8, addend: 0x0, symName: __ZN5boost13re_detail_50019basic_regex_creatorIcNS_12regex_traitsIcNS_16cpp_regex_traitsIcEEEEE20probe_leading_repeatEPNS0_14re_syntax_baseE, symObjAddr: 0xDC4A, symBinAddr: 0xEEBE, symSize: 0x64 }
  - { offset: 0xB3CCF, size: 0x8, addend: 0x0, symName: __ZN5boost13re_detail_50018basic_regex_parserIcNS_12regex_traitsIcNS_16cpp_regex_traitsIcEEEEE20parse_perl_extensionEv, symObjAddr: 0x6554, symBinAddr: 0x7CB0, symSize: 0x1820 }
  - { offset: 0xB5116, size: 0x8, addend: 0x0, symName: __ZN5boost13re_detail_50018basic_regex_parserIcNS_12regex_traitsIcNS_16cpp_regex_traitsIcEEEEE15parse_perl_verbEv, symObjAddr: 0x7D74, symBinAddr: 0x94D0, symSize: 0x570 }
  - { offset: 0xB53DF, size: 0x8, addend: 0x0, symName: __ZNKSt3__16vectorINS_4pairImmEENS_9allocatorIS2_EEE20__throw_length_errorB8ne180100Ev, symObjAddr: 0x8C8C, symBinAddr: 0xA3E8, symSize: 0x10 }
  - { offset: 0xB5409, size: 0x8, addend: 0x0, symName: __ZNSt3__119__allocate_at_leastB8ne180100INS_9allocatorINS_4pairImmEEEEEENS_19__allocation_resultINS_16allocator_traitsIT_E7pointerEEERS7_m, symObjAddr: 0x8C9C, symBinAddr: 0xA3F8, symSize: 0x2E }
  - { offset: 0xB5414, size: 0x8, addend: 0x0, symName: __ZNKSt3__16vectorINS_4pairImmEENS_9allocatorIS2_EEE20__throw_out_of_rangeB8ne180100Ev, symObjAddr: 0x8CCA, symBinAddr: 0xA426, symSize: 0x10 }
  - { offset: 0xB543E, size: 0x8, addend: 0x0, symName: __ZN5boost13re_detail_50019basic_regex_creatorIcNS_12regex_traitsIcNS_16cpp_regex_traitsIcEEEEE10append_setERKNS0_14basic_char_setIcS5_EE, symObjAddr: 0x8CDA, symBinAddr: 0xA436, symSize: 0x1A }
  - { offset: 0xB582A, size: 0x8, addend: 0x0, symName: __ZN5boost13re_detail_50018basic_regex_parserIcNS_12regex_traitsIcNS_16cpp_regex_traitsIcEEEEE13parse_backrefEv, symObjAddr: 0x9404, symBinAddr: 0xAB60, symSize: 0x10C }
  - { offset: 0xB5987, size: 0x8, addend: 0x0, symName: __ZN5boost13re_detail_50018basic_regex_parserIcNS_12regex_traitsIcNS_16cpp_regex_traitsIcEEEEE8parse_QEEv, symObjAddr: 0x9510, symBinAddr: 0xAC6C, symSize: 0x124 }
  - { offset: 0xB5CE1, size: 0x8, addend: 0x0, symName: __ZN5boost13re_detail_50019basic_regex_creatorIcNS_12regex_traitsIcNS_16cpp_regex_traitsIcEEEEE10append_setERKNS0_14basic_char_setIcS5_EEPNSt3__117integral_constantIbLb1EEE, symObjAddr: 0x9F5E, symBinAddr: 0xB6BA, symSize: 0x660 }
  - { offset: 0xB76F5, size: 0x8, addend: 0x0, symName: __ZN5boost13re_detail_50018basic_regex_parserIcNS_12regex_traitsIcNS_16cpp_regex_traitsIcEEEEE18unescape_characterEv, symObjAddr: 0x8DF0, symBinAddr: 0xA54C, symSize: 0x614 }
  - { offset: 0xB7F9B, size: 0x8, addend: 0x0, symName: __ZNSt3__16__treeIN5boost13re_detail_5007digraphIcEENS_4lessIS4_EENS_9allocatorIS4_EEE7destroyEPNS_11__tree_nodeIS4_PvEE, symObjAddr: 0xA9FE, symBinAddr: 0xC092, symSize: 0x34 }
  - { offset: 0xB80F2, size: 0x8, addend: 0x0, symName: __ZNK5boost16cpp_regex_traitsIcE3toiERPKcS3_i, symObjAddr: 0x83DC, symBinAddr: 0x9B38, symSize: 0x1FE }
  - { offset: 0xB850A, size: 0x8, addend: 0x0, symName: __ZN5boost13re_detail_50014basic_char_setIcNS_12regex_traitsIcNS_16cpp_regex_traitsIcEEEEED1Ev, symObjAddr: 0x8CF4, symBinAddr: 0xA450, symSize: 0x3A }
  - { offset: 0xB87EE, size: 0x8, addend: 0x0, symName: __ZNK5boost13re_detail_50020named_subexpressions6get_idEi, symObjAddr: 0x9634, symBinAddr: 0xAD90, symSize: 0x54 }
  - { offset: 0xB8A4F, size: 0x8, addend: 0x0, symName: __ZN5boost13re_detail_50019basic_regex_creatorIcNS_12regex_traitsIcNS_16cpp_regex_traitsIcEEEEE12insert_stateElNS0_19syntax_element_typeEm, symObjAddr: 0x88BA, symBinAddr: 0xA016, symSize: 0x94 }
  - { offset: 0xB8F5E, size: 0x8, addend: 0x0, symName: __ZNKSt3__16vectorIlNS_9allocatorIlEEE20__throw_length_errorB8ne180100Ev, symObjAddr: 0xADF4, symBinAddr: 0xC3F8, symSize: 0x10 }
  - { offset: 0xB8FD0, size: 0x8, addend: 0x0, symName: __ZN5boost13re_detail_50018basic_regex_parserIcNS_12regex_traitsIcNS_16cpp_regex_traitsIcEEEEE17parse_set_literalERNS0_14basic_char_setIcS5_EE, symObjAddr: 0xAE32, symBinAddr: 0xC40A, symSize: 0x12C }
  - { offset: 0xB91CC, size: 0x8, addend: 0x0, symName: __ZN5boost13re_detail_50019basic_regex_creatorIcNS_12regex_traitsIcNS_16cpp_regex_traitsIcEEEEE10append_setERKNS0_14basic_char_setIcS5_EEPNSt3__117integral_constantIbLb0EEE, symObjAddr: 0x9688, symBinAddr: 0xADE4, symSize: 0x8D6 }
  - { offset: 0xBBABE, size: 0x8, addend: 0x0, symName: __ZN5boost13re_detail_50018basic_regex_parserIcNS_12regex_traitsIcNS_16cpp_regex_traitsIcEEEEE13parse_optionsEv, symObjAddr: 0x8776, symBinAddr: 0x9ED2, symSize: 0x144 }
  - { offset: 0xBBB3D, size: 0x8, addend: 0x0, symName: __ZNSt3__16vectorINS_4pairImmEENS_9allocatorIS2_EEE9push_backB8ne180100EOS2_, symObjAddr: 0x82E4, symBinAddr: 0x9A40, symSize: 0xF8 }
  - { offset: 0xBC0A4, size: 0x8, addend: 0x0, symName: __ZNK5boost16cpp_regex_traitsIcE3toiERPKcS3_i, symObjAddr: 0x83DC, symBinAddr: 0x9B38, symSize: 0x1FE }
  - { offset: 0xBC0B7, size: 0x8, addend: 0x0, symName: __ZN5boost13re_detail_50020named_subexpressions8set_nameIcEEvPKT_S5_i, symObjAddr: 0x85DA, symBinAddr: 0x9D36, symSize: 0x19C }
  - { offset: 0xBC88E, size: 0x8, addend: 0x0, symName: __ZN5boost13re_detail_50018basic_regex_parserIcNS_12regex_traitsIcNS_16cpp_regex_traitsIcEEEEE20parse_perl_extensionEv.cold.1, symObjAddr: 0xE4CA, symBinAddr: 0x1C75A, symSize: 0x23 }
  - { offset: 0xBC8A6, size: 0x8, addend: 0x0, symName: __ZN5boost13re_detail_50018basic_regex_parserIcNS_12regex_traitsIcNS_16cpp_regex_traitsIcEEEEE10match_verbEPKc, symObjAddr: 0x8BEE, symBinAddr: 0xA34A, symSize: 0x9E }
  - { offset: 0xBD117, size: 0x8, addend: 0x0, symName: __ZNKSt3__16vectorIN5boost13re_detail_50020named_subexpressions4nameENS_9allocatorIS4_EEE20__throw_length_errorB8ne180100Ev, symObjAddr: 0x8AAE, symBinAddr: 0xA20A, symSize: 0x10 }
  - { offset: 0xBD141, size: 0x8, addend: 0x0, symName: __ZNSt3__119__allocate_at_leastB8ne180100INS_9allocatorIN5boost13re_detail_50020named_subexpressions4nameEEEEENS_19__allocation_resultINS_16allocator_traitsIT_E7pointerEEERS9_m, symObjAddr: 0x8ABE, symBinAddr: 0xA21A, symSize: 0x2E }
  - { offset: 0xBD14C, size: 0x8, addend: 0x0, symName: __ZN5boost13re_detail_50011raw_storage6insertEmm, symObjAddr: 0x8AEC, symBinAddr: 0xA248, symSize: 0x76 }
  - { offset: 0xBD1C7, size: 0x8, addend: 0x0, symName: __ZN5boost13re_detail_50010parser_bufIcNSt3__111char_traitsIcEEED1Ev, symObjAddr: 0x894E, symBinAddr: 0xA0AA, symSize: 0xA }
  - { offset: 0xBD206, size: 0x8, addend: 0x0, symName: __ZN5boost13re_detail_50010parser_bufIcNSt3__111char_traitsIcEEED0Ev, symObjAddr: 0x8958, symBinAddr: 0xA0B4, symSize: 0x1C }
  - { offset: 0xBD27D, size: 0x8, addend: 0x0, symName: __ZN5boost13re_detail_50010parser_bufIcNSt3__111char_traitsIcEEE6setbufEPcl, symObjAddr: 0x8974, symBinAddr: 0xA0D0, symSize: 0x18 }
  - { offset: 0xBD380, size: 0x8, addend: 0x0, symName: __ZN5boost13re_detail_50010parser_bufIcNSt3__111char_traitsIcEEE7seekoffExNS2_8ios_base7seekdirEj, symObjAddr: 0x898C, symBinAddr: 0xA0E8, symSize: 0xBE }
  - { offset: 0xBD576, size: 0x8, addend: 0x0, symName: __ZN5boost13re_detail_50010parser_bufIcNSt3__111char_traitsIcEEE7seekposENS2_4fposI11__mbstate_tEEj, symObjAddr: 0x8A4A, symBinAddr: 0xA1A6, symSize: 0x64 }
  - { offset: 0xBD6AF, size: 0x8, addend: 0x0, symName: __ZN5boost13re_detail_50011raw_storage6resizeEm, symObjAddr: 0x8B62, symBinAddr: 0xA2BE, symSize: 0x8C }
  - { offset: 0xBD742, size: 0x8, addend: 0x0, symName: __ZN5boost13re_detail_50011raw_storage6insertEmm.cold.1, symObjAddr: 0xE4ED, symBinAddr: 0x1C77D, symSize: 0x23 }
  - { offset: 0xBD7FF, size: 0x8, addend: 0x0, symName: __ZNK5boost13re_detail_50031cpp_regex_traits_implementationIcE18lookup_collatenameEPKcS4_, symObjAddr: 0xAA32, symBinAddr: 0xC0C6, symSize: 0x19C }
  - { offset: 0xBE4D3, size: 0x8, addend: 0x0, symName: __ZN5boost13re_detail_50018basic_regex_parserIcNS_12regex_traitsIcNS_16cpp_regex_traitsIcEEEEE13parse_backrefEv.cold.1, symObjAddr: 0xE510, symBinAddr: 0x1C7A0, symSize: 0x23 }
  - { offset: 0xBE8E1, size: 0x8, addend: 0x0, symName: __ZNK5boost13re_detail_50031cpp_regex_traits_implementationIcE17transform_primaryEPKcS4_, symObjAddr: 0xA5FC, symBinAddr: 0xBD58, symSize: 0x28C }
  - { offset: 0xBF486, size: 0x8, addend: 0x0, symName: __ZNSt3__112basic_stringIcNS_11char_traitsIcEENS_9allocatorIcEEE16__assign_trivialB8ne180100IPKcS8_EEvT_T0_m, symObjAddr: 0xA888, symBinAddr: 0xBFE4, symSize: 0xAE }
  - { offset: 0xBF801, size: 0x8, addend: 0x0, symName: __ZNK5boost13re_detail_50031cpp_regex_traits_implementationIcE17transform_primaryEPKcS4_.cold.1, symObjAddr: 0xE533, symBinAddr: 0x1C7C3, symSize: 0x23 }
  - { offset: 0xBFB7D, size: 0x8, addend: 0x0, symName: __ZNKSt3__16__treeINS_12__value_typeINS_12basic_stringIcNS_11char_traitsIcEENS_9allocatorIcEEEES7_EENS_19__map_value_compareIS7_S8_NS_4lessIS7_EELb1EEENS5_IS8_EEE4findIS7_EENS_21__tree_const_iteratorIS8_PNS_11__tree_nodeIS8_PvEElEERKT_, symObjAddr: 0xACF8, symBinAddr: 0xC38C, symSize: 0x6A }
  - { offset: 0xC00BF, size: 0x8, addend: 0x0, symName: __ZN5boost13re_detail_50018basic_regex_parserIcNS_12regex_traitsIcNS_16cpp_regex_traitsIcEEEEE20get_next_set_literalERNS0_14basic_char_setIcS5_EE, symObjAddr: 0xB466, symBinAddr: 0xCA3E, symSize: 0x24A }
  - { offset: 0xC0632, size: 0x8, addend: 0x0, symName: __ZNSt3__16__treeIN5boost13re_detail_5007digraphIcEENS_4lessIS4_EENS_9allocatorIS4_EEE25__emplace_unique_key_argsIS4_JRKS4_EEENS_4pairINS_15__tree_iteratorIS4_PNS_11__tree_nodeIS4_PvEElEEbEERKT_DpOT0_, symObjAddr: 0xB932, symBinAddr: 0xCF0A, symSize: 0x6E }
  - { offset: 0xC0921, size: 0x8, addend: 0x0, symName: __ZN5boost13re_detail_50014basic_char_setIcNS_12regex_traitsIcNS_16cpp_regex_traitsIcEEEEE9add_rangeERKNS0_7digraphIcEESA_, symObjAddr: 0xB6B0, symBinAddr: 0xCC88, symSize: 0x24C }
  - { offset: 0xC188E, size: 0x8, addend: 0x0, symName: __ZN5boost13re_detail_50014basic_char_setIcNS_12regex_traitsIcNS_16cpp_regex_traitsIcEEEEE14add_equivalentERKNS0_7digraphIcEE, symObjAddr: 0xBA62, symBinAddr: 0xCFFE, symSize: 0x46 }
  - { offset: 0xC1D07, size: 0x8, addend: 0x0, symName: __ZNKSt3__16vectorIN5boost13re_detail_5007digraphIcEENS_9allocatorIS4_EEE20__throw_length_errorB8ne180100Ev, symObjAddr: 0xB8FC, symBinAddr: 0xCED4, symSize: 0x10 }
  - { offset: 0xC1D31, size: 0x8, addend: 0x0, symName: __ZNSt3__119__allocate_at_leastB8ne180100INS_9allocatorIN5boost13re_detail_5007digraphIcEEEEEENS_19__allocation_resultINS_16allocator_traitsIT_E7pointerEEERS9_m, symObjAddr: 0xB90C, symBinAddr: 0xCEE4, symSize: 0x26 }
  - { offset: 0xC1E34, size: 0x8, addend: 0x0, symName: __ZNSt3__16__treeIN5boost13re_detail_5007digraphIcEENS_4lessIS4_EENS_9allocatorIS4_EEE12__find_equalIS4_EERPNS_16__tree_node_baseIPvEERPNS_15__tree_end_nodeISE_EERKT_, symObjAddr: 0xB9A0, symBinAddr: 0xCF78, symSize: 0x84 }
  - { offset: 0xC21E0, size: 0x8, addend: 0x0, symName: __ZN5boost11regex_errorD1Ev, symObjAddr: 0xC634, symBinAddr: 0xDBD0, symSize: 0xA }
  - { offset: 0xC2345, size: 0x8, addend: 0x0, symName: __ZN5boost10wrapexceptINS_11regex_errorEEC1ERKS2_, symObjAddr: 0xC99C, symBinAddr: 0xDC10, symSize: 0xB6 }
  - { offset: 0xC24C6, size: 0x8, addend: 0x0, symName: __ZThn40_N5boost10wrapexceptINS_11regex_errorEED1Ev, symObjAddr: 0xC92C, symBinAddr: 0xDBDC, symSize: 0x32 }
  - { offset: 0xC2AA2, size: 0x8, addend: 0x0, symName: __ZN5boost13re_detail_50019basic_regex_creatorIcNS_12regex_traitsIcNS_16cpp_regex_traitsIcEEEEE18calculate_backstepEPNS0_14re_syntax_baseE, symObjAddr: 0xDCAE, symBinAddr: 0xEF22, symSize: 0x1B6 }
  - { offset: 0xC2B8C, size: 0x8, addend: 0x0, symName: __ZN5boost13re_detail_50019basic_regex_creatorIcNS_12regex_traitsIcNS_16cpp_regex_traitsIcEEEEE15get_repeat_typeEPNS0_14re_syntax_baseE, symObjAddr: 0xDE64, symBinAddr: 0xF0D8, symSize: 0x5E }
  - { offset: 0xC2BC4, size: 0x8, addend: 0x0, symName: __ZNKSt3__16vectorINS_4pairIbPN5boost13re_detail_50014re_syntax_baseEEENS_9allocatorIS6_EEE20__throw_length_errorB8ne180100Ev, symObjAddr: 0xDEC2, symBinAddr: 0xF136, symSize: 0x10 }
  - { offset: 0xC2E7F, size: 0x8, addend: 0x0, symName: __ZNSt3__16vectorIhNS_9allocatorIhEEE11__vallocateB8ne180100Em, symObjAddr: 0xDF00, symBinAddr: 0xF148, symSize: 0x36 }
  - { offset: 0xC2F81, size: 0x8, addend: 0x0, symName: __ZNKSt3__16vectorIhNS_9allocatorIhEEE20__throw_length_errorB8ne180100Ev, symObjAddr: 0xDF36, symBinAddr: 0xF17E, symSize: 0x10 }
  - { offset: 0xC2FAB, size: 0x8, addend: 0x0, symName: __ZN5boost13re_detail_50016re_is_set_memberIPccNS_12regex_traitsIcNS_16cpp_regex_traitsIcEEEEjEET_S7_S7_PKNS0_11re_set_longIT2_EERKNS0_10regex_dataIT0_T1_EEb, symObjAddr: 0xDF46, symBinAddr: 0xF18E, symSize: 0x418 }
  - { offset: 0xC3186, size: 0x8, addend: 0x0, symName: __ZNSt3__16vectorIhNS_9allocatorIhEEE16__init_with_sizeB8ne180100IPhS5_EEvT_T0_m, symObjAddr: 0xE35E, symBinAddr: 0xF5A6, symSize: 0x64 }
  - { offset: 0xC35E0, size: 0x8, addend: 0x0, symName: __ZN5boost13re_detail_50019basic_regex_creatorIcNS_12regex_traitsIcNS_16cpp_regex_traitsIcEEEEE18calculate_backstepEPNS0_14re_syntax_baseE.cold.1, symObjAddr: 0xE556, symBinAddr: 0x1C7E6, symSize: 0x23 }
  - { offset: 0xC5B6E, size: 0x8, addend: 0x0, symName: __ZN12LanguageTree4loadERKNSt3__112basic_stringIcNS0_11char_traitsIcEENS0_9allocatorIcEEEE, symObjAddr: 0x0, symBinAddr: 0xF678, symSize: 0x44 }
  - { offset: 0xD8415, size: 0x8, addend: 0x0, symName: __ZNSt3__115allocate_sharedB8ne180100I10GrammarPtrNS_9allocatorIS1_EEJNS_10shared_ptrI12LanguageTreeEERmEvEENS4_IT_EERKT0_DpOT1_, symObjAddr: 0x270B, symBinAddr: 0x116ED, symSize: 0x5D }
  - { offset: 0xD86E9, size: 0x8, addend: 0x0, symName: __ZNSt3__115allocate_sharedB8ne180100I10PatternRawNS_9allocatorIS1_EEJRNS_17basic_string_viewIcNS_11char_traitsIcEEEERjRbSA_NS_12basic_stringIcS6_NS2_IcEEEENS_10shared_ptrI10GrammarPtrEEEvEENSE_IT_EERKT0_DpOT1_, symObjAddr: 0x2877, symBinAddr: 0x11859, symSize: 0x83 }
  - { offset: 0xD8A53, size: 0x8, addend: 0x0, symName: __ZNSt3__115allocate_sharedB8ne180100I10PatternRawNS_9allocatorIS1_EEJRNS_17basic_string_viewIcNS_11char_traitsIcEEEERjRbSA_NS_12basic_stringIcS6_NS2_IcEEEEDnEvEENS_10shared_ptrIT_EERKT0_DpOT1_, symObjAddr: 0x2C21, symBinAddr: 0x11BC5, symSize: 0x83 }
  - { offset: 0xD920C, size: 0x8, addend: 0x0, symName: __ZNSt3__112construct_atB8ne180100I12GrammarTokenJS1_EPS1_EEPT_S4_DpOT0_, symObjAddr: 0x1910, symBinAddr: 0x10E8E, symSize: 0x7A }
  - { offset: 0xD9545, size: 0x8, addend: 0x0, symName: __ZNSt3__119__allocate_at_leastB8ne180100INS_9allocatorI10PatternPtrEEEENS_19__allocation_resultINS_16allocator_traitsIT_E7pointerEEERS6_m, symObjAddr: 0x179A, symBinAddr: 0x10D18, symSize: 0x38 }
  - { offset: 0xD95ED, size: 0x8, addend: 0x0, symName: __ZNSt3__114__split_bufferI10PatternPtrRNS_9allocatorIS1_EEED2Ev, symObjAddr: 0x17D2, symBinAddr: 0x10D50, symSize: 0x40 }
  - { offset: 0xDA217, size: 0x8, addend: 0x0, symName: __ZNSt3__119__allocate_at_leastB8ne180100INS_9allocatorI12GrammarTokenEEEENS_19__allocation_resultINS_16allocator_traitsIT_E7pointerEEERS6_m, symObjAddr: 0x1A14, symBinAddr: 0x10F92, symSize: 0x37 }
  - { offset: 0xDA2BF, size: 0x8, addend: 0x0, symName: __ZNSt3__142__uninitialized_allocator_move_if_noexceptB8ne180100INS_9allocatorI12GrammarTokenEENS_16reverse_iteratorIPS2_EES6_S6_EET2_RT_T0_T1_S7_, symObjAddr: 0x1A4B, symBinAddr: 0x10FC9, symSize: 0x7D }
  - { offset: 0xDA31F, size: 0x8, addend: 0x0, symName: __ZNSt3__142__uninitialized_allocator_move_if_noexceptB8ne180100INS_9allocatorI12GrammarTokenEENS_16reverse_iteratorIPS2_EES6_S6_EET2_RT_T0_T1_S7_, symObjAddr: 0x1A4B, symBinAddr: 0x10FC9, symSize: 0x7D }
  - { offset: 0xDA861, size: 0x8, addend: 0x0, symName: __ZNSt3__112construct_atB8ne180100I12GrammarTokenJRKS1_EPS1_EEPT_S6_DpOT0_, symObjAddr: 0x1AC8, symBinAddr: 0x11046, symSize: 0x8C }
  - { offset: 0xDB9D7, size: 0x8, addend: 0x0, symName: __ZNSt3__120__throw_bad_weak_ptrB8ne180100Ev, symObjAddr: 0x269A, symBinAddr: 0x116BA, symSize: 0x32 }
  - { offset: 0xDBE27, size: 0x8, addend: 0x0, symName: __ZNSt3__112construct_atB8ne180100I10GrammarPtrJNS_10shared_ptrI12LanguageTreeEERmEPS1_EEPT_S8_DpOT0_, symObjAddr: 0x2802, symBinAddr: 0x117E4, symSize: 0x75 }
  - { offset: 0xDC448, size: 0x8, addend: 0x0, symName: __ZNSt3__112construct_atB8ne180100I10PatternRawJRNS_17basic_string_viewIcNS_11char_traitsIcEEEERjRbS8_NS_12basic_stringIcS4_NS_9allocatorIcEEEENS_10shared_ptrI10GrammarPtrEEEPS1_EEPT_SI_DpOT0_, symObjAddr: 0x29A4, symBinAddr: 0x11986, symSize: 0xE2 }
  - { offset: 0xDC971, size: 0x8, addend: 0x0, symName: __ZNSt3__112__destroy_atB8ne180100I10PatternRawLi0EEEvPT_, symObjAddr: 0x2BA5, symBinAddr: 0x11B87, symSize: 0x3D }
  - { offset: 0xDCCDF, size: 0x8, addend: 0x0, symName: __ZNSt3__112construct_atB8ne180100I10PatternRawJRNS_17basic_string_viewIcNS_11char_traitsIcEEEERjRbS8_NS_12basic_stringIcS4_NS_9allocatorIcEEEEDnEPS1_EEPT_SF_DpOT0_, symObjAddr: 0x2CF4, symBinAddr: 0x11C98, symSize: 0xD4 }
  - { offset: 0xDF41E, size: 0x8, addend: 0x0, symName: __ZNSt3__16vectorI10PatternPtrNS_9allocatorIS1_EEE26__swap_out_circular_bufferERNS_14__split_bufferIS1_RS3_EE, symObjAddr: 0x1710, symBinAddr: 0x10C8E, symSize: 0x7A }
  - { offset: 0xDF738, size: 0x8, addend: 0x0, symName: __ZNSt3__16vectorI12GrammarTokenNS_9allocatorIS1_EEE26__swap_out_circular_bufferERNS_14__split_bufferIS1_RS3_EE, symObjAddr: 0x198A, symBinAddr: 0x10F08, symSize: 0x7A }
  - { offset: 0xDFB9A, size: 0x8, addend: 0x0, symName: __ZN12LanguageTree4loadERKNSt3__112basic_stringIcNS0_11char_traitsIcEENS0_9allocatorIcEEEE, symObjAddr: 0x0, symBinAddr: 0xF678, symSize: 0x44 }
  - { offset: 0xDFC3A, size: 0x8, addend: 0x0, symName: __ZN12LanguageTree13parsePatternsER6Buffer, symObjAddr: 0x44, symBinAddr: 0xF6BC, symSize: 0x6E0 }
  - { offset: 0xE1412, size: 0x8, addend: 0x0, symName: __ZN12LanguageTree13parseGrammarsER6Buffer, symObjAddr: 0x724, symBinAddr: 0xFD9C, symSize: 0x55C }
  - { offset: 0xE3057, size: 0x8, addend: 0x0, symName: __ZN12LanguageTree14parseLanguagesER6Buffer, symObjAddr: 0xC80, symBinAddr: 0x102F8, symSize: 0x198 }
  - { offset: 0xE444C, size: 0x8, addend: 0x0, symName: __ZNSt3__16vectorINS_10shared_ptrI7PatternEENS_9allocatorIS3_EEE6resizeEm, symObjAddr: 0x125A, symBinAddr: 0x108D2, symSize: 0x66 }
  - { offset: 0xE4596, size: 0x8, addend: 0x0, symName: __Z11freadStringR6Buffer, symObjAddr: 0xE18, symBinAddr: 0x10490, symSize: 0x19C }
  - { offset: 0xE4F5B, size: 0x8, addend: 0x0, symName: __ZNSt3__110shared_ptrI12LanguageTreeEC2B8ne180100IS1_vEERKNS_8weak_ptrIT_EE, symObjAddr: 0x2660, symBinAddr: 0x11680, symSize: 0x3A }
  - { offset: 0xE4F9A, size: 0x8, addend: 0x0, symName: __ZNSt3__120__throw_bad_weak_ptrB8ne180100Ev, symObjAddr: 0x269A, symBinAddr: 0x116BA, symSize: 0x32 }
  - { offset: 0xE4FB1, size: 0x8, addend: 0x0, symName: __ZNSt3__16vectorINS_10shared_ptrI10PatternRawEENS_9allocatorIS3_EEE9push_backB8ne180100EOS3_, symObjAddr: 0x12C0, symBinAddr: 0x10938, symSize: 0x134 }
  - { offset: 0xE5573, size: 0x8, addend: 0x0, symName: __ZN12LanguageTree14resolvePatternEm, symObjAddr: 0x13F4, symBinAddr: 0x10A6C, symSize: 0xE4 }
  - { offset: 0xE5D54, size: 0x8, addend: 0x0, symName: __ZNSt3__16vectorI10PatternPtrNS_9allocatorIS1_EEE9push_backB8ne180100EOS1_, symObjAddr: 0xFB4, symBinAddr: 0x1062C, symSize: 0x130 }
  - { offset: 0xE6218, size: 0x8, addend: 0x0, symName: __ZNSt3__16vectorI10PatternPtrNS_9allocatorIS1_EEE16__init_with_sizeB8ne180100IPS1_S6_EEvT_T0_m, symObjAddr: 0x1C46, symBinAddr: 0x11112, symSize: 0x82 }
  - { offset: 0xE65FC, size: 0x8, addend: 0x0, symName: __ZNSt3__16vectorI12GrammarTokenNS_9allocatorIS1_EEE21__push_back_slow_pathIS1_EEPS1_OT_, symObjAddr: 0x1812, symBinAddr: 0x10D90, symSize: 0xFE }
  - { offset: 0xE68F1, size: 0x8, addend: 0x0, symName: __ZNSt3__16vectorI10PatternPtrNS_9allocatorIS1_EEE16__destroy_vectorclB8ne180100Ev, symObjAddr: 0x1D0C, symBinAddr: 0x111D8, symSize: 0x56 }
  - { offset: 0xE6AB7, size: 0x8, addend: 0x0, symName: __ZNSt3__16vectorINS_10shared_ptrI7GrammarEENS_9allocatorIS3_EEE9push_backB8ne180100ERKS3_, symObjAddr: 0x1112, symBinAddr: 0x1078A, symSize: 0x148 }
  - { offset: 0xE7178, size: 0x8, addend: 0x0, symName: __ZN12GrammarTokenD1Ev, symObjAddr: 0x10E4, symBinAddr: 0x1075C, symSize: 0x2E }
  - { offset: 0xE74E9, size: 0x8, addend: 0x0, symName: __ZNSt3__16__treeINS_12__value_typeINS_12basic_stringIcNS_11char_traitsIcEENS_9allocatorIcEEEENS_4pairIS7_mEEEENS_19__map_value_compareIS7_SA_NS_4lessIS7_EELb1EEENS5_ISA_EEE25__emplace_unique_key_argsIS7_JRS7_S9_EEENS8_INS_15__tree_iteratorISA_PNS_11__tree_nodeISA_PvEElEEbEERKT_DpOT0_, symObjAddr: 0x212E, symBinAddr: 0x11440, symSize: 0x84 }
  - { offset: 0xE7747, size: 0x8, addend: 0x0, symName: __ZNSt3__112basic_stringIcNS_11char_traitsIcEENS_9allocatorIcEEEC2B8ne180100Emc, symObjAddr: 0x15D4, symBinAddr: 0x10C02, symSize: 0x8C }
  - { offset: 0xE7DB7, size: 0x8, addend: 0x0, symName: __ZNSt3__114__split_bufferI10PatternPtrRNS_9allocatorIS1_EEED2Ev, symObjAddr: 0x17D2, symBinAddr: 0x10D50, symSize: 0x40 }
  - { offset: 0xE7F96, size: 0x8, addend: 0x0, symName: __ZNKSt3__16vectorI10PatternPtrNS_9allocatorIS1_EEE20__throw_length_errorB8ne180100Ev, symObjAddr: 0x178A, symBinAddr: 0x10D08, symSize: 0x10 }
  - { offset: 0xE7FC0, size: 0x8, addend: 0x0, symName: __ZNSt3__119__allocate_at_leastB8ne180100INS_9allocatorI10PatternPtrEEEENS_19__allocation_resultINS_16allocator_traitsIT_E7pointerEEERS6_m, symObjAddr: 0x179A, symBinAddr: 0x10D18, symSize: 0x38 }
  - { offset: 0xE8425, size: 0x8, addend: 0x0, symName: __ZNSt3__114__split_bufferINS_10shared_ptrI7GrammarEERNS_9allocatorIS3_EEED2Ev, symObjAddr: 0x1DA0, symBinAddr: 0x1123E, symSize: 0x40 }
  - { offset: 0xE85C8, size: 0x8, addend: 0x0, symName: __ZNKSt3__16vectorINS_10shared_ptrI7GrammarEENS_9allocatorIS3_EEE20__throw_length_errorB8ne180100Ev, symObjAddr: 0x1D62, symBinAddr: 0x1122E, symSize: 0x10 }
  - { offset: 0xE86C3, size: 0x8, addend: 0x0, symName: __ZNSt3__16vectorINS_10shared_ptrI7PatternEENS_9allocatorIS3_EEE8__appendEm, symObjAddr: 0x1DE0, symBinAddr: 0x1127E, symSize: 0x162 }
  - { offset: 0xE90CB, size: 0x8, addend: 0x0, symName: __ZNSt3__114__split_bufferINS_10shared_ptrI10PatternRawEERNS_9allocatorIS3_EEED2Ev, symObjAddr: 0x206E, symBinAddr: 0x11400, symSize: 0x40 }
  - { offset: 0xE926E, size: 0x8, addend: 0x0, symName: __ZNKSt3__16vectorINS_10shared_ptrI10PatternRawEENS_9allocatorIS3_EEE20__throw_length_errorB8ne180100Ev, symObjAddr: 0x2030, symBinAddr: 0x113F0, symSize: 0x10 }
  - { offset: 0xE938F, size: 0x8, addend: 0x0, symName: __ZN12LanguageTree14resolvePatternEm, symObjAddr: 0x13F4, symBinAddr: 0x10A6C, symSize: 0xE4 }
  - { offset: 0xE96C3, size: 0x8, addend: 0x0, symName: __ZNSt3__110shared_ptrI7PatternEaSB8ne180100EOS2_, symObjAddr: 0x14D8, symBinAddr: 0x10B50, symSize: 0x4A }
  - { offset: 0xE9907, size: 0x8, addend: 0x0, symName: __ZNSt3__110shared_ptrI7PatternEaSB8ne180100ERKS2_, symObjAddr: 0x156C, symBinAddr: 0x10B9A, symSize: 0x56 }
  - { offset: 0xE9C1C, size: 0x8, addend: 0x0, symName: __ZN12LanguageTree14resolveGrammarEm, symObjAddr: 0x15C2, symBinAddr: 0x10BF0, symSize: 0x12 }
  - { offset: 0xEA0D6, size: 0x8, addend: 0x0, symName: __ZNSt3__114__split_bufferI12GrammarTokenRNS_9allocatorIS1_EEED2Ev, symObjAddr: 0x1B82, symBinAddr: 0x110D2, symSize: 0x40 }
  - { offset: 0xEA23C, size: 0x8, addend: 0x0, symName: __ZNKSt3__16vectorI12GrammarTokenNS_9allocatorIS1_EEE20__throw_length_errorB8ne180100Ev, symObjAddr: 0x1A04, symBinAddr: 0x10F82, symSize: 0x10 }
  - { offset: 0xEA266, size: 0x8, addend: 0x0, symName: __ZNSt3__119__allocate_at_leastB8ne180100INS_9allocatorI12GrammarTokenEEEENS_19__allocation_resultINS_16allocator_traitsIT_E7pointerEEERS6_m, symObjAddr: 0x1A14, symBinAddr: 0x10F92, symSize: 0x37 }
  - { offset: 0xEA841, size: 0x8, addend: 0x0, symName: __ZNSt3__16vectorI10PatternPtrNS_9allocatorIS1_EEE11__vallocateB8ne180100Em, symObjAddr: 0x1CC8, symBinAddr: 0x11194, symSize: 0x44 }
  - { offset: 0xEAF92, size: 0x8, addend: 0x0, symName: __ZNKSt3__16vectorINS_10shared_ptrI7PatternEENS_9allocatorIS3_EEE20__throw_length_errorB8ne180100Ev, symObjAddr: 0x1F42, symBinAddr: 0x113E0, symSize: 0x10 }
  - { offset: 0xEB3C7, size: 0x8, addend: 0x0, symName: __ZNSt3__16__treeINS_12__value_typeINS_12basic_stringIcNS_11char_traitsIcEENS_9allocatorIcEEEENS_4pairIS7_mEEEENS_19__map_value_compareIS7_SA_NS_4lessIS7_EELb1EEENS5_ISA_EEE16__construct_nodeIJRS7_S9_EEENS_10unique_ptrINS_11__tree_nodeISA_PvEENS_22__tree_node_destructorINS5_ISM_EEEEEEDpOT_, symObjAddr: 0x222C, symBinAddr: 0x114C4, symSize: 0x64 }
  - { offset: 0xEB737, size: 0x8, addend: 0x0, symName: __ZNSt3__110unique_ptrINS_11__tree_nodeINS_12__value_typeINS_12basic_stringIcNS_11char_traitsIcEENS_9allocatorIcEEEENS_4pairIS8_mEEEEPvEENS_22__tree_node_destructorINS6_ISD_EEEEE5resetB8ne180100EPSD_, symObjAddr: 0x24F4, symBinAddr: 0x11586, symSize: 0x35 }
  - { offset: 0xEBBF5, size: 0x8, addend: 0x0, symName: __ZNSt3__14pairIKNS_12basic_stringIcNS_11char_traitsIcEENS_9allocatorIcEEEENS0_IS6_mEEEC2B8ne180100IRS6_S8_Li0EEEOT_OT0_, symObjAddr: 0x2334, symBinAddr: 0x11528, symSize: 0x5E }
  - { offset: 0xEBFAD, size: 0x8, addend: 0x0, symName: __ZNSt3__120__shared_ptr_emplaceI7GrammarNS_9allocatorIS1_EEED1Ev, symObjAddr: 0x255C, symBinAddr: 0x115BC, symSize: 0x18 }
  - { offset: 0xEC008, size: 0x8, addend: 0x0, symName: __ZNSt3__120__shared_ptr_emplaceI7GrammarNS_9allocatorIS1_EEED0Ev, symObjAddr: 0x2574, symBinAddr: 0x115D4, symSize: 0x2A }
  - { offset: 0xEC19C, size: 0x8, addend: 0x0, symName: __ZNSt3__120__shared_ptr_emplaceI7GrammarNS_9allocatorIS1_EEE16__on_zero_sharedEv, symObjAddr: 0x259E, symBinAddr: 0x115FE, symSize: 0x22 }
  - { offset: 0xEC330, size: 0x8, addend: 0x0, symName: __ZNSt3__16vectorI12GrammarTokenNS_9allocatorIS1_EEE16__destroy_vectorclB8ne180100Ev, symObjAddr: 0x25CA, symBinAddr: 0x1162A, symSize: 0x56 }
  - { offset: 0xEC4DA, size: 0x8, addend: 0x0, symName: __ZNSt3__120__shared_ptr_emplaceI7GrammarNS_9allocatorIS1_EEE21__on_zero_shared_weakEv, symObjAddr: 0x25C0, symBinAddr: 0x11620, symSize: 0xA }
  - { offset: 0xEC8D5, size: 0x8, addend: 0x0, symName: __ZNSt3__120__shared_ptr_emplaceI10GrammarPtrNS_9allocatorIS1_EEEC2B8ne180100IJNS_10shared_ptrI12LanguageTreeEERmES3_Li0EEES3_DpOT_, symObjAddr: 0x2768, symBinAddr: 0x1174A, symSize: 0x40 }
  - { offset: 0xECAFB, size: 0x8, addend: 0x0, symName: __ZNSt3__120__shared_ptr_emplaceI10GrammarPtrNS_9allocatorIS1_EEED1Ev, symObjAddr: 0x27A8, symBinAddr: 0x1178A, symSize: 0x18 }
  - { offset: 0xECB56, size: 0x8, addend: 0x0, symName: __ZNSt3__120__shared_ptr_emplaceI10GrammarPtrNS_9allocatorIS1_EEED0Ev, symObjAddr: 0x27C0, symBinAddr: 0x117A2, symSize: 0x2A }
  - { offset: 0xECC63, size: 0x8, addend: 0x0, symName: __ZNSt3__120__shared_ptr_emplaceI10GrammarPtrNS_9allocatorIS1_EEE16__on_zero_sharedEv, symObjAddr: 0x27EA, symBinAddr: 0x117CC, symSize: 0xE }
  - { offset: 0xECD70, size: 0x8, addend: 0x0, symName: __ZNSt3__120__shared_ptr_emplaceI10GrammarPtrNS_9allocatorIS1_EEE21__on_zero_shared_weakEv, symObjAddr: 0x27F8, symBinAddr: 0x117DA, symSize: 0xA }
  - { offset: 0xED11D, size: 0x8, addend: 0x0, symName: __ZNSt3__120__shared_ptr_emplaceI10PatternRawNS_9allocatorIS1_EEEC2B8ne180100IJRNS_17basic_string_viewIcNS_11char_traitsIcEEEERjRbSC_NS_12basic_stringIcS8_NS2_IcEEEENS_10shared_ptrI10GrammarPtrEEES3_Li0EEES3_DpOT_, symObjAddr: 0x28FA, symBinAddr: 0x118DC, symSize: 0x50 }
  - { offset: 0xED423, size: 0x8, addend: 0x0, symName: __ZNSt3__120__shared_ptr_emplaceI10PatternRawNS_9allocatorIS1_EEED1Ev, symObjAddr: 0x294A, symBinAddr: 0x1192C, symSize: 0x18 }
  - { offset: 0xED47E, size: 0x8, addend: 0x0, symName: __ZNSt3__120__shared_ptr_emplaceI10PatternRawNS_9allocatorIS1_EEED0Ev, symObjAddr: 0x2962, symBinAddr: 0x11944, symSize: 0x2A }
  - { offset: 0xED553, size: 0x8, addend: 0x0, symName: __ZNSt3__120__shared_ptr_emplaceI10PatternRawNS_9allocatorIS1_EEE16__on_zero_sharedEv, symObjAddr: 0x298C, symBinAddr: 0x1196E, symSize: 0xE }
  - { offset: 0xED5E7, size: 0x8, addend: 0x0, symName: __ZNSt3__120__shared_ptr_emplaceI10PatternRawNS_9allocatorIS1_EEE21__on_zero_shared_weakEv, symObjAddr: 0x299A, symBinAddr: 0x1197C, symSize: 0xA }
  - { offset: 0xED79C, size: 0x8, addend: 0x0, symName: __ZN10PatternRawC2ENSt3__117basic_string_viewIcNS0_11char_traitsIcEEEEjbbNS0_12basic_stringIcS3_NS0_9allocatorIcEEEENS0_10shared_ptrI10GrammarPtrEE, symObjAddr: 0x2A86, symBinAddr: 0x11A68, symSize: 0x11F }
  - { offset: 0xEDFC7, size: 0x8, addend: 0x0, symName: __ZNSt3__120__shared_ptr_emplaceI10PatternRawNS_9allocatorIS1_EEEC2B8ne180100IJRNS_17basic_string_viewIcNS_11char_traitsIcEEEERjRbSC_NS_12basic_stringIcS8_NS2_IcEEEEDnES3_Li0EEES3_DpOT_, symObjAddr: 0x2CA4, symBinAddr: 0x11C48, symSize: 0x50 }
  - { offset: 0xF008F, size: 0x8, addend: 0x0, symName: _light, symObjAddr: 0x2EEE0, symBinAddr: 0x24FD0, symSize: 0x0 }
  - { offset: 0xF00FF, size: 0x8, addend: 0x0, symName: _dark, symObjAddr: 0x2EEE8, symBinAddr: 0x24FD8, symSize: 0x0 }
  - { offset: 0xF2A90, size: 0x8, addend: 0x0, symName: __ZNSt3__115allocate_sharedB8ne180100I17SyntaxHighlighterNS_9allocatorIS1_EEJRNS_12basic_stringIcNS_11char_traitsIcEENS2_IcEEEEEvEENS_10shared_ptrIT_EERKT0_DpOT1_, symObjAddr: 0x15B3, symBinAddr: 0x130E9, symSize: 0x57 }
  - { offset: 0xF4E6F, size: 0x8, addend: 0x0, symName: __Z5colorjj, symObjAddr: 0x0, symBinAddr: 0x11D6C, symSize: 0x58 }
  - { offset: 0xF4EDD, size: 0x8, addend: 0x0, symName: __Z12dataToStringP6NSData, symObjAddr: 0x58, symBinAddr: 0x11DC4, symSize: 0x7F }
  - { offset: 0xF4FD4, size: 0x8, addend: 0x0, symName: __ZNSt3__112basic_stringIcNS_11char_traitsIcEENS_9allocatorIcEEEC2B8ne180100EPKcm, symObjAddr: 0x1390, symBinAddr: 0x1305C, symSize: 0x8C }
  - { offset: 0xF5517, size: 0x8, addend: 0x0, symName: __Z20stringViewToNSStringNSt3__117basic_string_viewIcNS_11char_traitsIcEEEE, symObjAddr: 0xD7, symBinAddr: 0x11E43, symSize: 0x80 }
  - { offset: 0xF58AA, size: 0x8, addend: 0x0, symName: __Z16stringToNSStringRKNSt3__112basic_stringIcNS_11char_traitsIcEENS_9allocatorIcEEEE, symObjAddr: 0x157, symBinAddr: 0x11EC3, symSize: 0x2A }
  - { offset: 0xF5950, size: 0x8, addend: 0x0, symName: '-[SyntaxterTheme initWithDark:textColor:textFont:italicFont:mediumFont:]', symObjAddr: 0x181, symBinAddr: 0x11EED, symSize: 0x117 }
  - { offset: 0xF5ACD, size: 0x8, addend: 0x0, symName: '-[SyntaxterTheme dark]', symObjAddr: 0x298, symBinAddr: 0x12004, symSize: 0x9 }
  - { offset: 0xF5B02, size: 0x8, addend: 0x0, symName: '-[SyntaxterTheme setDark:]', symObjAddr: 0x2A1, symBinAddr: 0x1200D, symSize: 0x9 }
  - { offset: 0xF5B3F, size: 0x8, addend: 0x0, symName: '-[SyntaxterTheme textColor]', symObjAddr: 0x2AA, symBinAddr: 0x12016, symSize: 0xA }
  - { offset: 0xF5B74, size: 0x8, addend: 0x0, symName: '-[SyntaxterTheme setTextColor:]', symObjAddr: 0x2B4, symBinAddr: 0x12020, symSize: 0x11 }
  - { offset: 0xF5BB5, size: 0x8, addend: 0x0, symName: '-[SyntaxterTheme textFont]', symObjAddr: 0x2C5, symBinAddr: 0x12031, symSize: 0xA }
  - { offset: 0xF5BEA, size: 0x8, addend: 0x0, symName: '-[SyntaxterTheme setTextFont:]', symObjAddr: 0x2CF, symBinAddr: 0x1203B, symSize: 0x11 }
  - { offset: 0xF5C2B, size: 0x8, addend: 0x0, symName: '-[SyntaxterTheme italicFont]', symObjAddr: 0x2E0, symBinAddr: 0x1204C, symSize: 0xA }
  - { offset: 0xF5C60, size: 0x8, addend: 0x0, symName: '-[SyntaxterTheme setItalicFont:]', symObjAddr: 0x2EA, symBinAddr: 0x12056, symSize: 0x11 }
  - { offset: 0xF5CA1, size: 0x8, addend: 0x0, symName: '-[SyntaxterTheme mediumFont]', symObjAddr: 0x2FB, symBinAddr: 0x12067, symSize: 0xA }
  - { offset: 0xF5CD6, size: 0x8, addend: 0x0, symName: '-[SyntaxterTheme setMediumFont:]', symObjAddr: 0x305, symBinAddr: 0x12071, symSize: 0x11 }
  - { offset: 0xF5D17, size: 0x8, addend: 0x0, symName: '-[SyntaxterTheme .cxx_destruct]', symObjAddr: 0x316, symBinAddr: 0x12082, symSize: 0x3E }
  - { offset: 0xF5D4A, size: 0x8, addend: 0x0, symName: '-[Brush initWith:color:]', symObjAddr: 0x354, symBinAddr: 0x120C0, symSize: 0xB7 }
  - { offset: 0xF5E1A, size: 0x8, addend: 0x0, symName: '-[Brush font]', symObjAddr: 0x40B, symBinAddr: 0x12177, symSize: 0xA }
  - { offset: 0xF5E4F, size: 0x8, addend: 0x0, symName: '-[Brush setFont:]', symObjAddr: 0x415, symBinAddr: 0x12181, symSize: 0x11 }
  - { offset: 0xF5E90, size: 0x8, addend: 0x0, symName: '-[Brush color]', symObjAddr: 0x426, symBinAddr: 0x12192, symSize: 0xA }
  - { offset: 0xF5EC5, size: 0x8, addend: 0x0, symName: '-[Brush setColor:]', symObjAddr: 0x430, symBinAddr: 0x1219C, symSize: 0x11 }
  - { offset: 0xF5F06, size: 0x8, addend: 0x0, symName: '-[Brush .cxx_destruct]', symObjAddr: 0x441, symBinAddr: 0x121AD, symSize: 0x28 }
  - { offset: 0xF5F39, size: 0x8, addend: 0x0, symName: __Z11applyStringP8NSStringP25NSMutableAttributedStringP5Brush, symObjAddr: 0x469, symBinAddr: 0x121D5, symSize: 0x18A }
  - { offset: 0xF618B, size: 0x8, addend: 0x0, symName: __Z9makeBrushNSt3__112basic_stringIcNS_11char_traitsIcEENS_9allocatorIcEEEES5_P14SyntaxterThemeP5Brush, symObjAddr: 0x5F3, symBinAddr: 0x1235F, symSize: 0x305 }
  - { offset: 0xF6676, size: 0x8, addend: 0x0, symName: '-[Syntaxer init]', symObjAddr: 0x8F8, symBinAddr: 0x12664, symSize: 0x1C6 }
  - { offset: 0xF6DB9, size: 0x8, addend: 0x0, symName: '-[Syntaxer syntax:language:theme:]', symObjAddr: 0xB08, symBinAddr: 0x1282A, symSize: 0x3D1 }
  - { offset: 0xF83BC, size: 0x8, addend: 0x0, symName: __ZNSt3__115allocate_sharedB8ne180100I17SyntaxHighlighterNS_9allocatorIS1_EEJRNS_12basic_stringIcNS_11char_traitsIcEENS2_IcEEEEEvEENS_10shared_ptrIT_EERKT0_DpOT1_, symObjAddr: 0x15B3, symBinAddr: 0x130E9, symSize: 0x57 }
  - { offset: 0xF83CD, size: 0x8, addend: 0x0, symName: '-[Syntaxer languageNameWith:]', symObjAddr: 0xED9, symBinAddr: 0x12BFB, symSize: 0x114 }
  - { offset: 0xF8987, size: 0x8, addend: 0x0, symName: '-[Syntaxer paint:string:brush:theme:]', symObjAddr: 0xFED, symBinAddr: 0x12D0F, symSize: 0x2C8 }
  - { offset: 0xF92ED, size: 0x8, addend: 0x0, symName: ___copy_helper_atomic_property_, symObjAddr: 0x12B5, symBinAddr: 0x12FD7, symSize: 0x1E }
  - { offset: 0xF93C1, size: 0x8, addend: 0x0, symName: '-[Syntaxer m_highlighter]', symObjAddr: 0x12D3, symBinAddr: 0x12FF5, symSize: 0x23 }
  - { offset: 0xF93F8, size: 0x8, addend: 0x0, symName: ___assign_helper_atomic_property_, symObjAddr: 0x12F6, symBinAddr: 0x13018, symSize: 0xA }
  - { offset: 0xF954F, size: 0x8, addend: 0x0, symName: '-[Syntaxer setM_highlighter:]', symObjAddr: 0x1356, symBinAddr: 0x13022, symSize: 0x1B }
  - { offset: 0xF9590, size: 0x8, addend: 0x0, symName: '-[Syntaxer .cxx_destruct]', symObjAddr: 0x1371, symBinAddr: 0x1303D, symSize: 0xE }
  - { offset: 0xF9677, size: 0x8, addend: 0x0, symName: '-[Syntaxer .cxx_construct]', symObjAddr: 0x137F, symBinAddr: 0x1304B, symSize: 0x11 }
  - { offset: 0xF9BFC, size: 0x8, addend: 0x0, symName: __ZNSt3__120__shared_ptr_emplaceI17SyntaxHighlighterNS_9allocatorIS1_EEEC2B8ne180100IJRNS_12basic_stringIcNS_11char_traitsIcEENS2_IcEEEEES3_Li0EEES3_DpOT_, symObjAddr: 0x160A, symBinAddr: 0x13140, symSize: 0x40 }
  - { offset: 0xF9E15, size: 0x8, addend: 0x0, symName: __ZNSt3__120__shared_ptr_emplaceI17SyntaxHighlighterNS_9allocatorIS1_EEED1Ev, symObjAddr: 0x164A, symBinAddr: 0x13180, symSize: 0x18 }
  - { offset: 0xF9E70, size: 0x8, addend: 0x0, symName: __ZNSt3__120__shared_ptr_emplaceI17SyntaxHighlighterNS_9allocatorIS1_EEED0Ev, symObjAddr: 0x1662, symBinAddr: 0x13198, symSize: 0x2A }
  - { offset: 0xF9F9C, size: 0x8, addend: 0x0, symName: __ZNSt3__120__shared_ptr_emplaceI17SyntaxHighlighterNS_9allocatorIS1_EEE16__on_zero_sharedEv, symObjAddr: 0x168C, symBinAddr: 0x131C2, symSize: 0xE }
  - { offset: 0xFA105, size: 0x8, addend: 0x0, symName: __ZNSt3__120__shared_ptr_emplaceI17SyntaxHighlighterNS_9allocatorIS1_EEE21__on_zero_shared_weakEv, symObjAddr: 0x169A, symBinAddr: 0x131D0, symSize: 0xA }
  - { offset: 0xFD9A2, size: 0x8, addend: 0x0, symName: __ZN5boost13re_detail_50011raise_errorINS_20regex_traits_wrapperINS_12regex_traitsIcNS_16cpp_regex_traitsIcEEEEEEEEvRKT_NS_15regex_constants10error_typeE, symObjAddr: 0x4260, symBinAddr: 0x18924, symSize: 0x86 }
  - { offset: 0xFF8B6, size: 0x8, addend: 0x0, symName: __ZN5boost16exception_detail20copy_boost_exceptionEPNS_9exceptionEPKS1_, symObjAddr: 0x196E, symBinAddr: 0x16032, symSize: 0xD2 }
  - { offset: 0x10000D, size: 0x8, addend: 0x0, symName: __ZN5boost12regex_searchIPKcNSt3__19allocatorINS_9sub_matchIS2_EEEEcNS_12regex_traitsIcNS_16cpp_regex_traitsIcEEEEEEbT_SC_RNS_13match_resultsISC_T0_EERKNS_11basic_regexIT1_T2_EENS_15regex_constants12_match_flagsESC_, symObjAddr: 0x10D6, symBinAddr: 0x157A6, symSize: 0xBC }
  - { offset: 0x1003AA, size: 0x8, addend: 0x0, symName: __ZN5boost15throw_exceptionISt16invalid_argumentEEvRKT_, symObjAddr: 0x148B, symBinAddr: 0x15B5B, symSize: 0x4B }
  - { offset: 0x1003F5, size: 0x8, addend: 0x0, symName: __ZN5boost15throw_exceptionISt11logic_errorEEvRKT_, symObjAddr: 0x623A, symBinAddr: 0x19CB2, symSize: 0x4C }
  - { offset: 0x100440, size: 0x8, addend: 0x0, symName: __ZN5boost15throw_exceptionINS_11regex_errorEEEvRKT_, symObjAddr: 0x5DB8, symBinAddr: 0x19914, symSize: 0x4C }
  - { offset: 0x114C58, size: 0x8, addend: 0x0, symName: __ZNSt3__115allocate_sharedB8ne180100I12LanguageTreeNS_9allocatorIS1_EEJEvEENS_10shared_ptrIT_EERKT0_DpOT1_, symObjAddr: 0x7889, symBinAddr: 0x1B201, symSize: 0x75 }
  - { offset: 0x115D8C, size: 0x8, addend: 0x0, symName: __ZNSt3__113__equal_rangeB8ne180100INS_17_ClassicAlgPolicyERNS_6__lessIvvEENS_11__wrap_iterIPKN5boost13re_detail_50020named_subexpressions4nameEEESC_S9_NS_10__identityEEENS_4pairIT1_SF_EESF_T2_RKT3_OT0_OT4_, symObjAddr: 0x4A38, symBinAddr: 0x19000, symSize: 0xD4 }
  - { offset: 0x117310, size: 0x8, addend: 0x0, symName: __ZNSt3__119__allocate_at_leastB8ne180100INS_9allocatorIN5boost13re_detail_50014recursion_infoINS2_13match_resultsIPKcNS1_INS2_9sub_matchIS7_EEEEEEEEEEEENS_19__allocation_resultINS_16allocator_traitsIT_E7pointerEEERSG_m, symObjAddr: 0x5977, symBinAddr: 0x1956F, symSize: 0x30 }
  - { offset: 0x1173C6, size: 0x8, addend: 0x0, symName: __ZNSt3__142__uninitialized_allocator_move_if_noexceptB8ne180100INS_9allocatorIN5boost13re_detail_50014recursion_infoINS2_13match_resultsIPKcNS1_INS2_9sub_matchIS7_EEEEEEEEEENS_16reverse_iteratorIPSC_EESG_SG_EET2_RT_T0_T1_SH_, symObjAddr: 0x59A7, symBinAddr: 0x1959F, symSize: 0x99 }
  - { offset: 0x117426, size: 0x8, addend: 0x0, symName: __ZNSt3__142__uninitialized_allocator_move_if_noexceptB8ne180100INS_9allocatorIN5boost13re_detail_50014recursion_infoINS2_13match_resultsIPKcNS1_INS2_9sub_matchIS7_EEEEEEEEEENS_16reverse_iteratorIPSC_EESG_SG_EET2_RT_T0_T1_SH_, symObjAddr: 0x59A7, symBinAddr: 0x1959F, symSize: 0x99 }
  - { offset: 0x118868, size: 0x8, addend: 0x0, symName: __ZNSt3__112__destroy_atB8ne180100I12LanguageTreeLi0EEEvPT_, symObjAddr: 0x7958, symBinAddr: 0x1B2D0, symSize: 0x64 }
  - { offset: 0x11AD35, size: 0x8, addend: 0x0, symName: __ZN5boost13re_detail_50012perl_matcherIPKcNSt3__19allocatorINS_9sub_matchIS3_EEEENS_12regex_traitsIcNS_16cpp_regex_traitsIcEEEEE24estimate_max_state_countEPNS4_26random_access_iterator_tagE, symObjAddr: 0x14D6, symBinAddr: 0x15BA6, symSize: 0xB0 }
  - { offset: 0x11AE34, size: 0x8, addend: 0x0, symName: __ZN5boost13re_detail_50012perl_matcherIPKcNSt3__19allocatorINS_9sub_matchIS3_EEEENS_12regex_traitsIcNS_16cpp_regex_traitsIcEEEEE8find_impEv, symObjAddr: 0x1A9E, symBinAddr: 0x16162, symSize: 0x2BC }
  - { offset: 0x11AE5A, size: 0x8, addend: 0x0, symName: __ZZN5boost13re_detail_50012perl_matcherIPKcNSt3__19allocatorINS_9sub_matchIS3_EEEENS_12regex_traitsIcNS_16cpp_regex_traitsIcEEEEE8find_impEvE13s_find_vtable, symObjAddr: 0x8B30, symBinAddr: 0x22EA0, symSize: 0x0 }
  - { offset: 0x11B465, size: 0x8, addend: 0x0, symName: __ZNK5boost16cpp_regex_traitsIcE7isctypeEcj, symObjAddr: 0x2220, symBinAddr: 0x168E4, symSize: 0xC8 }
  - { offset: 0x11B5E8, size: 0x8, addend: 0x0, symName: __ZN5boost13re_detail_50012perl_matcherIPKcNSt3__19allocatorINS_9sub_matchIS3_EEEENS_12regex_traitsIcNS_16cpp_regex_traitsIcEEEEE16match_all_statesEv, symObjAddr: 0x235E, symBinAddr: 0x16A22, symSize: 0x124 }
  - { offset: 0x11B60E, size: 0x8, addend: 0x0, symName: __ZZN5boost13re_detail_50012perl_matcherIPKcNSt3__19allocatorINS_9sub_matchIS3_EEEENS_12regex_traitsIcNS_16cpp_regex_traitsIcEEEEE16match_all_statesEvE14s_match_vtable, symObjAddr: 0x8BA0, symBinAddr: 0x22F10, symSize: 0x0 }
  - { offset: 0x11B8A9, size: 0x8, addend: 0x0, symName: __ZN5boost13re_detail_50015mem_block_cache8instanceEv, symObjAddr: 0x43D8, symBinAddr: 0x18A9C, symSize: 0x50 }
  - { offset: 0x11B8C9, size: 0x8, addend: 0x0, symName: __ZZN5boost13re_detail_50015mem_block_cache8instanceEvE11block_cache, symObjAddr: 0x9BB8, symBinAddr: 0x24C60, symSize: 0x0 }
  - { offset: 0x11B8D9, size: 0x8, addend: 0x0, symName: __ZN5boost13re_detail_50012perl_matcherIPKcNSt3__19allocatorINS_9sub_matchIS3_EEEENS_12regex_traitsIcNS_16cpp_regex_traitsIcEEEEE6unwindEb, symObjAddr: 0x21C4, symBinAddr: 0x16888, symSize: 0x5C }
  - { offset: 0x11B901, size: 0x8, addend: 0x0, symName: __ZZN5boost13re_detail_50012perl_matcherIPKcNSt3__19allocatorINS_9sub_matchIS3_EEEENS_12regex_traitsIcNS_16cpp_regex_traitsIcEEEEE6unwindEbE14s_unwind_table, symObjAddr: 0x9030, symBinAddr: 0x23270, symSize: 0x0 }
  - { offset: 0x11C33B, size: 0x8, addend: 0x0, symName: __ZN5boost13re_detail_50012perl_matcherIPKcNSt3__19allocatorINS_9sub_matchIS3_EEEENS_12regex_traitsIcNS_16cpp_regex_traitsIcEEEEE14construct_initERKNS_11basic_regexIcSC_EENS_15regex_constants12_match_flagsE, symObjAddr: 0x12F4, symBinAddr: 0x159C4, symSize: 0x197 }
  - { offset: 0x11CD10, size: 0x8, addend: 0x0, symName: __ZNSt3__16vectorIN5boost13re_detail_50014recursion_infoINS1_13match_resultsIPKcNS_9allocatorINS1_9sub_matchIS6_EEEEEEEENS7_ISC_EEE26__swap_out_circular_bufferERNS_14__split_bufferISC_RSD_EE, symObjAddr: 0x58FE, symBinAddr: 0x194F6, symSize: 0x79 }
  - { offset: 0x11CEEF, size: 0x8, addend: 0x0, symName: __ZNSt3__16vectorIN5boost9sub_matchIPKcEENS_9allocatorIS5_EEE26__swap_out_circular_bufferERNS_14__split_bufferIS5_RS7_EEPS5_, symObjAddr: 0x69A6, symBinAddr: 0x1A41E, symSize: 0xA8 }
  - { offset: 0x11D3BC, size: 0x8, addend: 0x0, symName: __ZNSt3__110shared_ptrI12LanguageTreeE18__enable_weak_thisB8ne180100IS1_S1_vEEvPKNS_23enable_shared_from_thisIT_EEPT0_, symObjAddr: 0x7BEE, symBinAddr: 0x1B3E2, symSize: 0x7E }
  - { offset: 0x11D7EF, size: 0x8, addend: 0x0, symName: __ZN17SyntaxHighlighterC2ERKNSt3__112basic_stringIcNS0_11char_traitsIcEENS0_9allocatorIcEEEE, symObjAddr: 0x0, symBinAddr: 0x14AD0, symSize: 0x8C }
  - { offset: 0x11DB5D, size: 0x8, addend: 0x0, symName: __ZN17SyntaxHighlighterC1ERKNSt3__112basic_stringIcNS0_11char_traitsIcEENS0_9allocatorIcEEEE, symObjAddr: 0xD6, symBinAddr: 0x14B5E, symSize: 0xA }
  - { offset: 0x11DD06, size: 0x8, addend: 0x0, symName: __ZN17SyntaxHighlighter8tokenizeERKNSt3__112basic_stringIcNS0_11char_traitsIcEENS0_9allocatorIcEEEES8_, symObjAddr: 0xE0, symBinAddr: 0x14B68, symSize: 0x9C }
  - { offset: 0x11E109, size: 0x8, addend: 0x0, symName: __ZN17SyntaxHighlighter8tokenizeENSt3__117basic_string_viewIcNS0_11char_traitsIcEEEEPK7Grammar, symObjAddr: 0x17C, symBinAddr: 0x14C04, symSize: 0x6E }
  - { offset: 0x11E194, size: 0x8, addend: 0x0, symName: __ZN17SyntaxHighlighter12matchGrammarENSt3__117basic_string_viewIcNS0_11char_traitsIcEEEER9TokenListPK7GrammarP13TokenListNodemP14RematchOptions, symObjAddr: 0x344, symBinAddr: 0x14DCC, symSize: 0x62A }
  - { offset: 0x11ED1A, size: 0x8, addend: 0x0, symName: __ZNK17SyntaxHighlighter9languagesEv, symObjAddr: 0x1EA, symBinAddr: 0x14C72, symSize: 0x1C }
  - { offset: 0x11ED78, size: 0x8, addend: 0x0, symName: __ZNK12LanguageTree4keysEv, symObjAddr: 0x206, symBinAddr: 0x14C8E, symSize: 0xA4 }
  - { offset: 0x11F505, size: 0x8, addend: 0x0, symName: __ZNSt3__16__treeINS_12__value_typeINS_12basic_stringIcNS_11char_traitsIcEENS_9allocatorIcEEEES7_EENS_19__map_value_compareIS7_S8_NS_4lessIS7_EELb1EEENS5_IS8_EEE25__emplace_unique_key_argsIS7_JRKS7_SH_EEENS_4pairINS_15__tree_iteratorIS8_PNS_11__tree_nodeIS8_PvEElEEbEERKT_DpOT0_, symObjAddr: 0xC2E, symBinAddr: 0x155EA, symSize: 0x84 }
  - { offset: 0x11F7F4, size: 0x8, addend: 0x0, symName: __ZNK17SyntaxHighlighter12languageNameERKNSt3__112basic_stringIcNS0_11char_traitsIcEENS0_9allocatorIcEEEE, symObjAddr: 0x2AA, symBinAddr: 0x14D32, symSize: 0x1C }
  - { offset: 0x11F86A, size: 0x8, addend: 0x0, symName: __ZNK12LanguageTree12languageNameERKNSt3__112basic_stringIcNS0_11char_traitsIcEENS0_9allocatorIcEEEE, symObjAddr: 0x2C6, symBinAddr: 0x14D4E, symSize: 0x7E }
  - { offset: 0x12000D, size: 0x8, addend: 0x0, symName: __ZNK7Pattern5matchERbRmNSt3__117basic_string_viewIcNS2_11char_traitsIcEEEE, symObjAddr: 0x96E, symBinAddr: 0x153F6, symSize: 0x1E4 }
  - { offset: 0x120501, size: 0x8, addend: 0x0, symName: __ZN5boost13match_resultsIPKcNSt3__19allocatorINS_9sub_matchIS2_EEEEE17raise_logic_errorEv, symObjAddr: 0x6200, symBinAddr: 0x19C78, symSize: 0x3A }
  - { offset: 0x12053C, size: 0x8, addend: 0x0, symName: __ZNK5boost13match_resultsIPKcNSt3__19allocatorINS_9sub_matchIS2_EEEEEixEi, symObjAddr: 0x107E, symBinAddr: 0x1574E, symSize: 0x58 }
  - { offset: 0x1205B7, size: 0x8, addend: 0x0, symName: __ZN5boost13match_resultsIPKcNSt3__19allocatorINS_9sub_matchIS2_EEEEED2Ev, symObjAddr: 0x7796, symBinAddr: 0x1B1CE, symSize: 0x30 }
  - { offset: 0x120A4A, size: 0x8, addend: 0x0, symName: __ZNSt3__16__treeINS_12__value_typeINS_12basic_stringIcNS_11char_traitsIcEENS_9allocatorIcEEEES7_EENS_19__map_value_compareIS7_S8_NS_4lessIS7_EELb1EEENS5_IS8_EEE16__construct_nodeIJRKS7_SH_EEENS_10unique_ptrINS_11__tree_nodeIS8_PvEENS_22__tree_node_destructorINS5_ISL_EEEEEEDpOT_, symObjAddr: 0xD2C, symBinAddr: 0x15670, symSize: 0x64 }
  - { offset: 0x1211BF, size: 0x8, addend: 0x0, symName: __ZNSt3__14pairIKNS_12basic_stringIcNS_11char_traitsIcEENS_9allocatorIcEEEES6_EC2B8ne180100ILb1ELi0EEERS7_SA_, symObjAddr: 0xE00, symBinAddr: 0x156D4, symSize: 0x78 }
  - { offset: 0x121806, size: 0x8, addend: 0x0, symName: __ZN5boost13re_detail_50012perl_matcherIPKcNSt3__19allocatorINS_9sub_matchIS3_EEEENS_12regex_traitsIcNS_16cpp_regex_traitsIcEEEEEC2ES3_S3_RNS_13match_resultsIS3_S8_EERKNS_11basic_regexIcSC_EENS_15regex_constants12_match_flagsES3_, symObjAddr: 0x11DA, symBinAddr: 0x158AA, symSize: 0x11A }
  - { offset: 0x121B76, size: 0x8, addend: 0x0, symName: __ZNSt3__16vectorIN5boost13re_detail_50014recursion_infoINS1_13match_resultsIPKcNS_9allocatorINS1_9sub_matchIS6_EEEEEEEENS7_ISC_EEE16__destroy_vectorclB8ne180100Ev, symObjAddr: 0x1A40, symBinAddr: 0x16104, symSize: 0x5E }
  - { offset: 0x121D4E, size: 0x8, addend: 0x0, symName: __ZN5boost13re_detail_50012perl_matcherIPKcNSt3__19allocatorINS_9sub_matchIS3_EEEENS_12regex_traitsIcNS_16cpp_regex_traitsIcEEEEED1Ev, symObjAddr: 0x1192, symBinAddr: 0x15862, symSize: 0x48 }
  - { offset: 0x121ED5, size: 0x8, addend: 0x0, symName: __ZNSt3__110unique_ptrIN5boost13match_resultsIPKcNS_9allocatorINS1_9sub_matchIS4_EEEEEENS_14default_deleteIS9_EEE5resetB8ne180100EPS9_, symObjAddr: 0x1586, symBinAddr: 0x15C56, symSize: 0x2E }
  - { offset: 0x1221F5, size: 0x8, addend: 0x0, symName: __ZN5boost13re_detail_50012perl_matcherIPKcNSt3__19allocatorINS_9sub_matchIS3_EEEENS_12regex_traitsIcNS_16cpp_regex_traitsIcEEEEE14construct_initERKNS_11basic_regexIcSC_EENS_15regex_constants12_match_flagsE.cold.1, symObjAddr: 0x7C6C, symBinAddr: 0x1C814, symSize: 0x23 }
  - { offset: 0x122223, size: 0x8, addend: 0x0, symName: __ZN5boost13re_detail_50012perl_matcherIPKcNSt3__19allocatorINS_9sub_matchIS3_EEEENS_12regex_traitsIcNS_16cpp_regex_traitsIcEEEEE14construct_initERKNS_11basic_regexIcSC_EENS_15regex_constants12_match_flagsE.cold.2, symObjAddr: 0x7C8F, symBinAddr: 0x1C837, symSize: 0x23 }
  - { offset: 0x122251, size: 0x8, addend: 0x0, symName: __ZN5boost10wrapexceptISt16invalid_argumentEC1ERKS1_, symObjAddr: 0x15B4, symBinAddr: 0x15C84, symSize: 0x5C }
  - { offset: 0x122429, size: 0x8, addend: 0x0, symName: __ZN5boost10wrapexceptISt16invalid_argumentED1Ev, symObjAddr: 0x1610, symBinAddr: 0x15CE0, symSize: 0x34 }
  - { offset: 0x1224B9, size: 0x8, addend: 0x0, symName: __ZN5boost16exception_detail12refcount_ptrINS0_20error_info_containerEED2Ev, symObjAddr: 0x1890, symBinAddr: 0x15F54, symSize: 0x32 }
  - { offset: 0x12263D, size: 0x8, addend: 0x0, symName: __ZNK5boost10wrapexceptISt16invalid_argumentE5cloneEv, symObjAddr: 0x1644, symBinAddr: 0x15D14, symSize: 0xE2 }
  - { offset: 0x122839, size: 0x8, addend: 0x0, symName: __ZNK5boost10wrapexceptISt16invalid_argumentE7rethrowEv, symObjAddr: 0x1726, symBinAddr: 0x15DF6, symSize: 0x4C }
  - { offset: 0x122876, size: 0x8, addend: 0x0, symName: __ZN5boost10wrapexceptISt16invalid_argumentEC1ERKS2_, symObjAddr: 0x18C2, symBinAddr: 0x15F86, symSize: 0xAC }
  - { offset: 0x1229D9, size: 0x8, addend: 0x0, symName: __ZN5boost10wrapexceptISt16invalid_argumentED0Ev, symObjAddr: 0x1772, symBinAddr: 0x15E42, symSize: 0x38 }
  - { offset: 0x122A93, size: 0x8, addend: 0x0, symName: __ZThn8_N5boost10wrapexceptISt16invalid_argumentED1Ev, symObjAddr: 0x17AA, symBinAddr: 0x15E7A, symSize: 0x30 }
  - { offset: 0x122B52, size: 0x8, addend: 0x0, symName: __ZThn8_N5boost10wrapexceptISt16invalid_argumentED0Ev, symObjAddr: 0x17DA, symBinAddr: 0x15EAA, symSize: 0x3A }
  - { offset: 0x122C1F, size: 0x8, addend: 0x0, symName: __ZThn24_N5boost10wrapexceptISt16invalid_argumentED1Ev, symObjAddr: 0x1814, symBinAddr: 0x15EE4, symSize: 0x32 }
  - { offset: 0x122CC0, size: 0x8, addend: 0x0, symName: __ZThn24_N5boost10wrapexceptISt16invalid_argumentED0Ev, symObjAddr: 0x1846, symBinAddr: 0x15F16, symSize: 0x3E }
  - { offset: 0x122D8B, size: 0x8, addend: 0x0, symName: __ZN5boost16exception_detail10clone_baseD1Ev, symObjAddr: 0x1884, symBinAddr: 0x1C80C, symSize: 0x6 }
  - { offset: 0x123157, size: 0x8, addend: 0x0, symName: __ZN5boost13re_detail_50015save_state_initC2EPPNS0_11saved_stateES4_, symObjAddr: 0x65E6, symBinAddr: 0x1A05E, symSize: 0x7C }
  - { offset: 0x12333A, size: 0x8, addend: 0x0, symName: __ZN5boost13match_resultsIPKcNSt3__19allocatorINS_9sub_matchIS2_EEEEE8set_sizeEmS2_S2_, symObjAddr: 0x2072, symBinAddr: 0x16736, symSize: 0xFA }
  - { offset: 0x12384B, size: 0x8, addend: 0x0, symName: __ZNK5boost13match_resultsIPKcNSt3__19allocatorINS_9sub_matchIS2_EEEEE6lengthEi, symObjAddr: 0x216C, symBinAddr: 0x16830, symSize: 0x58 }
  - { offset: 0x1238F0, size: 0x8, addend: 0x0, symName: __ZN5boost13re_detail_50015save_state_initD2Ev, symObjAddr: 0x773E, symBinAddr: 0x1B176, symSize: 0x58 }
  - { offset: 0x123ABC, size: 0x8, addend: 0x0, symName: __ZN5boost13re_detail_50012perl_matcherIPKcNSt3__19allocatorINS_9sub_matchIS3_EEEENS_12regex_traitsIcNS_16cpp_regex_traitsIcEEEEE16find_restart_anyEv, symObjAddr: 0x1D5A, symBinAddr: 0x1641E, symSize: 0x8A }
  - { offset: 0x123BEF, size: 0x8, addend: 0x0, symName: __ZN5boost13re_detail_50012perl_matcherIPKcNSt3__19allocatorINS_9sub_matchIS3_EEEENS_12regex_traitsIcNS_16cpp_regex_traitsIcEEEEE12match_prefixEv, symObjAddr: 0x1FBA, symBinAddr: 0x1667E, symSize: 0xB0 }
  - { offset: 0x123CD1, size: 0x8, addend: 0x0, symName: __ZN5boost13re_detail_50012perl_matcherIPKcNSt3__19allocatorINS_9sub_matchIS3_EEEENS_12regex_traitsIcNS_16cpp_regex_traitsIcEEEEE16find_restart_anyEv.cold.1, symObjAddr: 0x7CB2, symBinAddr: 0x1C85A, symSize: 0x23 }
  - { offset: 0x123D00, size: 0x8, addend: 0x0, symName: __ZN5boost13re_detail_50012perl_matcherIPKcNSt3__19allocatorINS_9sub_matchIS3_EEEENS_12regex_traitsIcNS_16cpp_regex_traitsIcEEEEE16find_restart_anyEv.cold.2, symObjAddr: 0x7CD5, symBinAddr: 0x1C87D, symSize: 0x23 }
  - { offset: 0x123D2F, size: 0x8, addend: 0x0, symName: __ZN5boost13re_detail_50012perl_matcherIPKcNSt3__19allocatorINS_9sub_matchIS3_EEEENS_12regex_traitsIcNS_16cpp_regex_traitsIcEEEEE17find_restart_wordEv, symObjAddr: 0x1DE4, symBinAddr: 0x164A8, symSize: 0xE6 }
  - { offset: 0x123E21, size: 0x8, addend: 0x0, symName: __ZN5boost13re_detail_50012perl_matcherIPKcNSt3__19allocatorINS_9sub_matchIS3_EEEENS_12regex_traitsIcNS_16cpp_regex_traitsIcEEEEE17find_restart_wordEv.cold.1, symObjAddr: 0x7CF8, symBinAddr: 0x1C8A0, symSize: 0x23 }
  - { offset: 0x123E50, size: 0x8, addend: 0x0, symName: __ZN5boost13re_detail_50012perl_matcherIPKcNSt3__19allocatorINS_9sub_matchIS3_EEEENS_12regex_traitsIcNS_16cpp_regex_traitsIcEEEEE17find_restart_lineEv, symObjAddr: 0x1ECA, symBinAddr: 0x1658E, symSize: 0xD2 }
  - { offset: 0x123FAF, size: 0x8, addend: 0x0, symName: __ZN5boost13re_detail_50012perl_matcherIPKcNSt3__19allocatorINS_9sub_matchIS3_EEEENS_12regex_traitsIcNS_16cpp_regex_traitsIcEEEEE17find_restart_lineEv.cold.1, symObjAddr: 0x7D1B, symBinAddr: 0x1C8C3, symSize: 0x23 }
  - { offset: 0x123FDE, size: 0x8, addend: 0x0, symName: __ZN5boost13re_detail_50012perl_matcherIPKcNSt3__19allocatorINS_9sub_matchIS3_EEEENS_12regex_traitsIcNS_16cpp_regex_traitsIcEEEEE17find_restart_lineEv.cold.2, symObjAddr: 0x7D3E, symBinAddr: 0x1C8E6, symSize: 0x23 }
  - { offset: 0x12400D, size: 0x8, addend: 0x0, symName: __ZN5boost13re_detail_50012perl_matcherIPKcNSt3__19allocatorINS_9sub_matchIS3_EEEENS_12regex_traitsIcNS_16cpp_regex_traitsIcEEEEE16find_restart_bufEv, symObjAddr: 0x1F9C, symBinAddr: 0x16660, symSize: 0x1E }
  - { offset: 0x124043, size: 0x8, addend: 0x0, symName: __ZN5boost13match_resultsIPKcNSt3__19allocatorINS_9sub_matchIS2_EEEEE9set_firstES2_, symObjAddr: 0x22E8, symBinAddr: 0x169AC, symSize: 0x76 }
  - { offset: 0x1240CA, size: 0x8, addend: 0x0, symName: __ZN5boost13match_resultsIPKcNSt3__19allocatorINS_9sub_matchIS2_EEEEE10set_secondES2_mbb, symObjAddr: 0x2482, symBinAddr: 0x16B46, symSize: 0x6E }
  - { offset: 0x124164, size: 0x8, addend: 0x0, symName: __ZN5boost13match_resultsIPKcNSt3__19allocatorINS_9sub_matchIS2_EEEEE12maybe_assignERKS8_, symObjAddr: 0x24F0, symBinAddr: 0x16BB4, symSize: 0x1E0 }
  - { offset: 0x124345, size: 0x8, addend: 0x0, symName: __ZN5boost13re_detail_50012perl_matcherIPKcNSt3__19allocatorINS_9sub_matchIS3_EEEENS_12regex_traitsIcNS_16cpp_regex_traitsIcEEEEE12match_prefixEv.cold.1, symObjAddr: 0x7D61, symBinAddr: 0x1C909, symSize: 0x23 }
  - { offset: 0x124374, size: 0x8, addend: 0x0, symName: __ZN5boost13re_detail_50012perl_matcherIPKcNSt3__19allocatorINS_9sub_matchIS3_EEEENS_12regex_traitsIcNS_16cpp_regex_traitsIcEEEEE16find_restart_litEv, symObjAddr: 0x206A, symBinAddr: 0x1672E, symSize: 0x8 }
  - { offset: 0x124516, size: 0x8, addend: 0x0, symName: __ZNSt3__16vectorIN5boost9sub_matchIPKcEENS_9allocatorIS5_EEE5eraseENS_11__wrap_iterIPKS5_EESC_, symObjAddr: 0x6662, symBinAddr: 0x1A0DA, symSize: 0x66 }
  - { offset: 0x1246F1, size: 0x8, addend: 0x0, symName: __ZNSt3__16vectorIN5boost9sub_matchIPKcEENS_9allocatorIS5_EEE6insertENS_11__wrap_iterIPKS5_EEmRSA_, symObjAddr: 0x66C8, symBinAddr: 0x1A140, symSize: 0x252 }
  - { offset: 0x1250C8, size: 0x8, addend: 0x0, symName: __ZN5boost13match_resultsIPKcNSt3__19allocatorINS_9sub_matchIS2_EEEEE9set_firstES2_.cold.1, symObjAddr: 0x7D84, symBinAddr: 0x1C92C, symSize: 0x23 }
  - { offset: 0x125203, size: 0x8, addend: 0x0, symName: __ZN5boost13re_detail_50012perl_matcherIPKcNSt3__19allocatorINS_9sub_matchIS3_EEEENS_12regex_traitsIcNS_16cpp_regex_traitsIcEEEEE12extend_stackEv, symObjAddr: 0x4340, symBinAddr: 0x18A04, symSize: 0x98 }
  - { offset: 0x125431, size: 0x8, addend: 0x0, symName: __ZN5boost13match_resultsIPKcNSt3__19allocatorINS_9sub_matchIS2_EEEEE10set_secondES2_mbb.cold.1, symObjAddr: 0x7DA7, symBinAddr: 0x1C94F, symSize: 0x23 }
  - { offset: 0x12545F, size: 0x8, addend: 0x0, symName: __ZN5boost13match_resultsIPKcNSt3__19allocatorINS_9sub_matchIS2_EEEEEaSERKS8_, symObjAddr: 0x4456, symBinAddr: 0x18B1A, symSize: 0x78 }
  - { offset: 0x125595, size: 0x8, addend: 0x0, symName: __ZNK5boost13match_resultsIPKcNSt3__19allocatorINS_9sub_matchIS2_EEEEE6suffixEv, symObjAddr: 0x61B0, symBinAddr: 0x19C28, symSize: 0x28 }
  - { offset: 0x1255E9, size: 0x8, addend: 0x0, symName: __ZNK5boost13match_resultsIPKcNSt3__19allocatorINS_9sub_matchIS2_EEEEE6prefixEv, symObjAddr: 0x61D8, symBinAddr: 0x19C50, symSize: 0x28 }
  - { offset: 0x125634, size: 0x8, addend: 0x0, symName: __ZN5boost13match_resultsIPKcNSt3__19allocatorINS_9sub_matchIS2_EEEEE12maybe_assignERKS8_.cold.1, symObjAddr: 0x7DCA, symBinAddr: 0x1C972, symSize: 0x23 }
  - { offset: 0x12564C, size: 0x8, addend: 0x0, symName: __ZN5boost13match_resultsIPKcNSt3__19allocatorINS_9sub_matchIS2_EEEEE12maybe_assignERKS8_.cold.2, symObjAddr: 0x7DED, symBinAddr: 0x1C995, symSize: 0x23 }
  - { offset: 0x125664, size: 0x8, addend: 0x0, symName: __ZN5boost13match_resultsIPKcNSt3__19allocatorINS_9sub_matchIS2_EEEEE12maybe_assignERKS8_.cold.3, symObjAddr: 0x7E10, symBinAddr: 0x1C9B8, symSize: 0x23 }
  - { offset: 0x12567C, size: 0x8, addend: 0x0, symName: __ZN5boost13match_resultsIPKcNSt3__19allocatorINS_9sub_matchIS2_EEEEE12maybe_assignERKS8_.cold.4, symObjAddr: 0x7E33, symBinAddr: 0x1C9DB, symSize: 0x23 }
  - { offset: 0x12588C, size: 0x8, addend: 0x0, symName: __ZN5boost13re_detail_50012perl_matcherIPKcNSt3__19allocatorINS_9sub_matchIS3_EEEENS_12regex_traitsIcNS_16cpp_regex_traitsIcEEEEE15match_startmarkEv, symObjAddr: 0x26D0, symBinAddr: 0x16D94, symSize: 0x314 }
  - { offset: 0x125DDB, size: 0x8, addend: 0x0, symName: __ZN5boost13re_detail_50012perl_matcherIPKcNSt3__19allocatorINS_9sub_matchIS3_EEEENS_12regex_traitsIcNS_16cpp_regex_traitsIcEEEEE20match_assert_backrefEv, symObjAddr: 0x3D62, symBinAddr: 0x18426, symSize: 0x178 }
  - { offset: 0x126282, size: 0x8, addend: 0x0, symName: __ZN5boost13match_resultsIPKcNSt3__19allocatorINS_9sub_matchIS2_EEEEE9set_firstES2_mb, symObjAddr: 0x42E6, symBinAddr: 0x189AA, symSize: 0x5A }
  - { offset: 0x126336, size: 0x8, addend: 0x0, symName: __ZN5boost13re_detail_50012perl_matcherIPKcNSt3__19allocatorINS_9sub_matchIS3_EEEENS_12regex_traitsIcNS_16cpp_regex_traitsIcEEEEE15match_startmarkEv.cold.3, symObjAddr: 0x7E9C, symBinAddr: 0x1CA44, symSize: 0x23 }
  - { offset: 0x12634E, size: 0x8, addend: 0x0, symName: __ZN5boost13re_detail_50012perl_matcherIPKcNSt3__19allocatorINS_9sub_matchIS3_EEEENS_12regex_traitsIcNS_16cpp_regex_traitsIcEEEEE15match_startmarkEv.cold.1, symObjAddr: 0x7E56, symBinAddr: 0x1C9FE, symSize: 0x23 }
  - { offset: 0x126366, size: 0x8, addend: 0x0, symName: __ZN5boost13re_detail_50012perl_matcherIPKcNSt3__19allocatorINS_9sub_matchIS3_EEEENS_12regex_traitsIcNS_16cpp_regex_traitsIcEEEEE15match_startmarkEv.cold.2, symObjAddr: 0x7E79, symBinAddr: 0x1CA21, symSize: 0x23 }
  - { offset: 0x1265BD, size: 0x8, addend: 0x0, symName: __ZN5boost13re_detail_50012perl_matcherIPKcNSt3__19allocatorINS_9sub_matchIS3_EEEENS_12regex_traitsIcNS_16cpp_regex_traitsIcEEEEE13match_endmarkEv, symObjAddr: 0x29E4, symBinAddr: 0x170A8, symSize: 0x1A4 }
  - { offset: 0x12698C, size: 0x8, addend: 0x0, symName: __ZN5boost13re_detail_50015saved_recursionINS_13match_resultsIPKcNSt3__19allocatorINS_9sub_matchIS4_EEEEEEEC2EiPKNS0_14re_syntax_baseEPSA_SF_, symObjAddr: 0x47C6, symBinAddr: 0x18D8E, symSize: 0x5A }
  - { offset: 0x126AD7, size: 0x8, addend: 0x0, symName: __ZN5boost13re_detail_50014repeater_countIPKcEC2EiPPS4_S3_i, symObjAddr: 0x4920, symBinAddr: 0x18EE8, symSize: 0x5E }
  - { offset: 0x126BCF, size: 0x8, addend: 0x0, symName: __ZN5boost13re_detail_50012perl_matcherIPKcNSt3__19allocatorINS_9sub_matchIS3_EEEENS_12regex_traitsIcNS_16cpp_regex_traitsIcEEEEE13match_literalEv, symObjAddr: 0x2B88, symBinAddr: 0x1724C, symSize: 0xA8 }
  - { offset: 0x126CA1, size: 0x8, addend: 0x0, symName: __ZN5boost13re_detail_50012perl_matcherIPKcNSt3__19allocatorINS_9sub_matchIS3_EEEENS_12regex_traitsIcNS_16cpp_regex_traitsIcEEEEE16match_start_lineEv, symObjAddr: 0x2C30, symBinAddr: 0x172F4, symSize: 0x6A }
  - { offset: 0x126D06, size: 0x8, addend: 0x0, symName: __ZN5boost13re_detail_50012perl_matcherIPKcNSt3__19allocatorINS_9sub_matchIS3_EEEENS_12regex_traitsIcNS_16cpp_regex_traitsIcEEEEE14match_end_lineEv, symObjAddr: 0x2C9A, symBinAddr: 0x1735E, symSize: 0x5E }
  - { offset: 0x126D64, size: 0x8, addend: 0x0, symName: __ZN5boost13re_detail_50012perl_matcherIPKcNSt3__19allocatorINS_9sub_matchIS3_EEEENS_12regex_traitsIcNS_16cpp_regex_traitsIcEEEEE10match_wildEv, symObjAddr: 0x2CF8, symBinAddr: 0x173BC, symSize: 0x52 }
  - { offset: 0x126DA2, size: 0x8, addend: 0x0, symName: __ZN5boost13re_detail_50012perl_matcherIPKcNSt3__19allocatorINS_9sub_matchIS3_EEEENS_12regex_traitsIcNS_16cpp_regex_traitsIcEEEEE11match_matchEv, symObjAddr: 0x2D4A, symBinAddr: 0x1740E, symSize: 0x154 }
  - { offset: 0x12701E, size: 0x8, addend: 0x0, symName: __ZN5boost13match_resultsIPKcNSt3__19allocatorINS_9sub_matchIS2_EEEEE10set_secondES2_, symObjAddr: 0x49E6, symBinAddr: 0x18FAE, symSize: 0x52 }
  - { offset: 0x127083, size: 0x8, addend: 0x0, symName: __ZN5boost13re_detail_50012perl_matcherIPKcNSt3__19allocatorINS_9sub_matchIS3_EEEENS_12regex_traitsIcNS_16cpp_regex_traitsIcEEEEE11match_matchEv.cold.1, symObjAddr: 0x7EBF, symBinAddr: 0x1CA67, symSize: 0x23 }
  - { offset: 0x12709B, size: 0x8, addend: 0x0, symName: __ZN5boost13re_detail_50012perl_matcherIPKcNSt3__19allocatorINS_9sub_matchIS3_EEEENS_12regex_traitsIcNS_16cpp_regex_traitsIcEEEEE19match_word_boundaryEv, symObjAddr: 0x2E9E, symBinAddr: 0x17562, symSize: 0x92 }
  - { offset: 0x1270EE, size: 0x8, addend: 0x0, symName: __ZN5boost13re_detail_50012perl_matcherIPKcNSt3__19allocatorINS_9sub_matchIS3_EEEENS_12regex_traitsIcNS_16cpp_regex_traitsIcEEEEE17match_within_wordEv, symObjAddr: 0x2F30, symBinAddr: 0x175F4, symSize: 0x28 }
  - { offset: 0x127140, size: 0x8, addend: 0x0, symName: __ZN5boost13re_detail_50012perl_matcherIPKcNSt3__19allocatorINS_9sub_matchIS3_EEEENS_12regex_traitsIcNS_16cpp_regex_traitsIcEEEEE16match_word_startEv, symObjAddr: 0x2F58, symBinAddr: 0x1761C, symSize: 0x72 }
  - { offset: 0x1271A6, size: 0x8, addend: 0x0, symName: __ZN5boost13re_detail_50012perl_matcherIPKcNSt3__19allocatorINS_9sub_matchIS3_EEEENS_12regex_traitsIcNS_16cpp_regex_traitsIcEEEEE14match_word_endEv, symObjAddr: 0x2FCA, symBinAddr: 0x1768E, symSize: 0x70 }
  - { offset: 0x1271FD, size: 0x8, addend: 0x0, symName: __ZN5boost13re_detail_50012perl_matcherIPKcNSt3__19allocatorINS_9sub_matchIS3_EEEENS_12regex_traitsIcNS_16cpp_regex_traitsIcEEEEE18match_buffer_startEv, symObjAddr: 0x303A, symBinAddr: 0x176FE, symSize: 0x28 }
  - { offset: 0x127225, size: 0x8, addend: 0x0, symName: __ZN5boost13re_detail_50012perl_matcherIPKcNSt3__19allocatorINS_9sub_matchIS3_EEEENS_12regex_traitsIcNS_16cpp_regex_traitsIcEEEEE16match_buffer_endEv, symObjAddr: 0x3062, symBinAddr: 0x17726, symSize: 0x28 }
  - { offset: 0x12731F, size: 0x8, addend: 0x0, symName: __ZN5boost13re_detail_50012perl_matcherIPKcNSt3__19allocatorINS_9sub_matchIS3_EEEENS_12regex_traitsIcNS_16cpp_regex_traitsIcEEEEE13match_backrefEv, symObjAddr: 0x308A, symBinAddr: 0x1774E, symSize: 0x15C }
  - { offset: 0x1276CB, size: 0x8, addend: 0x0, symName: __ZN5boost13re_detail_50012perl_matcherIPKcNSt3__19allocatorINS_9sub_matchIS3_EEEENS_12regex_traitsIcNS_16cpp_regex_traitsIcEEEEE13match_backrefEv.cold.1, symObjAddr: 0x7EE2, symBinAddr: 0x1CA8A, symSize: 0x23 }
  - { offset: 0x1276FA, size: 0x8, addend: 0x0, symName: __ZN5boost13re_detail_50012perl_matcherIPKcNSt3__19allocatorINS_9sub_matchIS3_EEEENS_12regex_traitsIcNS_16cpp_regex_traitsIcEEEEE13match_backrefEv.cold.2, symObjAddr: 0x7F05, symBinAddr: 0x1CAAD, symSize: 0x23 }
  - { offset: 0x127712, size: 0x8, addend: 0x0, symName: __ZN5boost13re_detail_50012perl_matcherIPKcNSt3__19allocatorINS_9sub_matchIS3_EEEENS_12regex_traitsIcNS_16cpp_regex_traitsIcEEEEE14match_long_setEv, symObjAddr: 0x31E6, symBinAddr: 0x178AA, symSize: 0x5C }
  - { offset: 0x1277A1, size: 0x8, addend: 0x0, symName: __ZN5boost13re_detail_50012perl_matcherIPKcNSt3__19allocatorINS_9sub_matchIS3_EEEENS_12regex_traitsIcNS_16cpp_regex_traitsIcEEEEE14match_long_setEv.cold.1, symObjAddr: 0x7F28, symBinAddr: 0x1CAD0, symSize: 0x23 }
  - { offset: 0x1277D0, size: 0x8, addend: 0x0, symName: __ZN5boost13re_detail_50012perl_matcherIPKcNSt3__19allocatorINS_9sub_matchIS3_EEEENS_12regex_traitsIcNS_16cpp_regex_traitsIcEEEEE9match_setEv, symObjAddr: 0x3242, symBinAddr: 0x17906, symSize: 0x5A }
  - { offset: 0x127864, size: 0x8, addend: 0x0, symName: __ZN5boost13re_detail_50012perl_matcherIPKcNSt3__19allocatorINS_9sub_matchIS3_EEEENS_12regex_traitsIcNS_16cpp_regex_traitsIcEEEEE10match_jumpEv, symObjAddr: 0x329C, symBinAddr: 0x17960, symSize: 0x14 }
  - { offset: 0x1278FD, size: 0x8, addend: 0x0, symName: __ZN5boost13re_detail_50012perl_matcherIPKcNSt3__19allocatorINS_9sub_matchIS3_EEEENS_12regex_traitsIcNS_16cpp_regex_traitsIcEEEEE9match_altEv, symObjAddr: 0x32B0, symBinAddr: 0x17974, symSize: 0xAC }
  - { offset: 0x127AFD, size: 0x8, addend: 0x0, symName: __ZN5boost13re_detail_50012perl_matcherIPKcNSt3__19allocatorINS_9sub_matchIS3_EEEENS_12regex_traitsIcNS_16cpp_regex_traitsIcEEEEE9match_repEv, symObjAddr: 0x335C, symBinAddr: 0x17A20, symSize: 0x236 }
  - { offset: 0x127F36, size: 0x8, addend: 0x0, symName: __ZN5boost13re_detail_50012perl_matcherIPKcNSt3__19allocatorINS_9sub_matchIS3_EEEENS_12regex_traitsIcNS_16cpp_regex_traitsIcEEEEE15match_combiningEv, symObjAddr: 0x3592, symBinAddr: 0x17C56, symSize: 0x86 }
  - { offset: 0x128014, size: 0x8, addend: 0x0, symName: __ZN5boost13re_detail_50012perl_matcherIPKcNSt3__19allocatorINS_9sub_matchIS3_EEEENS_12regex_traitsIcNS_16cpp_regex_traitsIcEEEEE21match_soft_buffer_endEv, symObjAddr: 0x3618, symBinAddr: 0x17CDC, symSize: 0x7A }
  - { offset: 0x1280D8, size: 0x8, addend: 0x0, symName: __ZN5boost13re_detail_50012perl_matcherIPKcNSt3__19allocatorINS_9sub_matchIS3_EEEENS_12regex_traitsIcNS_16cpp_regex_traitsIcEEEEE22match_restart_continueEv, symObjAddr: 0x3692, symBinAddr: 0x17D56, symSize: 0x26 }
  - { offset: 0x128100, size: 0x8, addend: 0x0, symName: __ZN5boost13re_detail_50012perl_matcherIPKcNSt3__19allocatorINS_9sub_matchIS3_EEEENS_12regex_traitsIcNS_16cpp_regex_traitsIcEEEEE25match_dot_repeat_dispatchEv, symObjAddr: 0x36B8, symBinAddr: 0x17D7C, symSize: 0xA }
  - { offset: 0x12813C, size: 0x8, addend: 0x0, symName: __ZN5boost13re_detail_50012perl_matcherIPKcNSt3__19allocatorINS_9sub_matchIS3_EEEENS_12regex_traitsIcNS_16cpp_regex_traitsIcEEEEE21match_dot_repeat_fastEv, symObjAddr: 0x54EE, symBinAddr: 0x190E6, symSize: 0x1D6 }
  - { offset: 0x12858C, size: 0x8, addend: 0x0, symName: __ZN5boost13re_detail_50012perl_matcherIPKcNSt3__19allocatorINS_9sub_matchIS3_EEEENS_12regex_traitsIcNS_16cpp_regex_traitsIcEEEEE17match_char_repeatEv, symObjAddr: 0x36C2, symBinAddr: 0x17D86, symSize: 0x226 }
  - { offset: 0x12892C, size: 0x8, addend: 0x0, symName: __ZN5boost13re_detail_50012perl_matcherIPKcNSt3__19allocatorINS_9sub_matchIS3_EEEENS_12regex_traitsIcNS_16cpp_regex_traitsIcEEEEE17match_char_repeatEv.cold.1, symObjAddr: 0x7F4B, symBinAddr: 0x1CAF3, symSize: 0x23 }
  - { offset: 0x128944, size: 0x8, addend: 0x0, symName: __ZN5boost13re_detail_50012perl_matcherIPKcNSt3__19allocatorINS_9sub_matchIS3_EEEENS_12regex_traitsIcNS_16cpp_regex_traitsIcEEEEE16match_set_repeatEv, symObjAddr: 0x38E8, symBinAddr: 0x17FAC, symSize: 0x216 }
  - { offset: 0x128CD6, size: 0x8, addend: 0x0, symName: __ZN5boost13re_detail_50012perl_matcherIPKcNSt3__19allocatorINS_9sub_matchIS3_EEEENS_12regex_traitsIcNS_16cpp_regex_traitsIcEEEEE21match_long_set_repeatEv, symObjAddr: 0x3AFE, symBinAddr: 0x181C2, symSize: 0x230 }
  - { offset: 0x12905B, size: 0x8, addend: 0x0, symName: __ZN5boost13re_detail_50012perl_matcherIPKcNSt3__19allocatorINS_9sub_matchIS3_EEEENS_12regex_traitsIcNS_16cpp_regex_traitsIcEEEEE21match_long_set_repeatEv.cold.1, symObjAddr: 0x7F6E, symBinAddr: 0x1CB16, symSize: 0x23 }
  - { offset: 0x12908A, size: 0x8, addend: 0x0, symName: __ZN5boost13re_detail_50012perl_matcherIPKcNSt3__19allocatorINS_9sub_matchIS3_EEEENS_12regex_traitsIcNS_16cpp_regex_traitsIcEEEEE14match_backstepEv, symObjAddr: 0x3D2E, symBinAddr: 0x183F2, symSize: 0x34 }
  - { offset: 0x129133, size: 0x8, addend: 0x0, symName: __ZN5boost13re_detail_50012perl_matcherIPKcNSt3__19allocatorINS_9sub_matchIS3_EEEENS_12regex_traitsIcNS_16cpp_regex_traitsIcEEEEE20match_assert_backrefEv.cold.1, symObjAddr: 0x7F91, symBinAddr: 0x1CB39, symSize: 0x23 }
  - { offset: 0x129162, size: 0x8, addend: 0x0, symName: __ZN5boost13re_detail_50012perl_matcherIPKcNSt3__19allocatorINS_9sub_matchIS3_EEEENS_12regex_traitsIcNS_16cpp_regex_traitsIcEEEEE20match_assert_backrefEv.cold.2, symObjAddr: 0x7FB4, symBinAddr: 0x1CB5C, symSize: 0x23 }
  - { offset: 0x12920F, size: 0x8, addend: 0x0, symName: __ZN5boost13re_detail_50012perl_matcherIPKcNSt3__19allocatorINS_9sub_matchIS3_EEEENS_12regex_traitsIcNS_16cpp_regex_traitsIcEEEEE17match_toggle_caseEv, symObjAddr: 0x3EDA, symBinAddr: 0x1859E, symSize: 0x60 }
  - { offset: 0x129573, size: 0x8, addend: 0x0, symName: __ZN5boost13re_detail_50012perl_matcherIPKcNSt3__19allocatorINS_9sub_matchIS3_EEEENS_12regex_traitsIcNS_16cpp_regex_traitsIcEEEEE15match_recursionEv, symObjAddr: 0x3F3A, symBinAddr: 0x185FE, symSize: 0x228 }
  - { offset: 0x129CBB, size: 0x8, addend: 0x0, symName: __ZNSt3__16vectorIN5boost13re_detail_50014recursion_infoINS1_13match_resultsIPKcNS_9allocatorINS1_9sub_matchIS6_EEEEEEEENS7_ISC_EEE7reserveEm, symObjAddr: 0x5842, symBinAddr: 0x1943A, symSize: 0xAC }
  - { offset: 0x129E95, size: 0x8, addend: 0x0, symName: __ZN5boost13match_resultsIPKcNSt3__19allocatorINS_9sub_matchIS2_EEEEEC2ERKS8_, symObjAddr: 0x4820, symBinAddr: 0x18DE8, symSize: 0x94 }
  - { offset: 0x12A06F, size: 0x8, addend: 0x0, symName: __ZNSt3__16vectorIN5boost13re_detail_50014recursion_infoINS1_13match_resultsIPKcNS_9allocatorINS1_9sub_matchIS6_EEEEEEEENS7_ISC_EEE21__push_back_slow_pathISC_EEPSC_OT_, symObjAddr: 0x5A84, symBinAddr: 0x1967C, symSize: 0x11C }
  - { offset: 0x12A3E4, size: 0x8, addend: 0x0, symName: __ZN5boost13re_detail_50012perl_matcherIPKcNSt3__19allocatorINS_9sub_matchIS3_EEEENS_12regex_traitsIcNS_16cpp_regex_traitsIcEEEEE15match_recursionEv.cold.1, symObjAddr: 0x7FD7, symBinAddr: 0x1CB7F, symSize: 0x23 }
  - { offset: 0x12A3FC, size: 0x8, addend: 0x0, symName: __ZN5boost13re_detail_50012perl_matcherIPKcNSt3__19allocatorINS_9sub_matchIS3_EEEENS_12regex_traitsIcNS_16cpp_regex_traitsIcEEEEE10match_failEv, symObjAddr: 0x4162, symBinAddr: 0x18826, symSize: 0x8 }
  - { offset: 0x12A424, size: 0x8, addend: 0x0, symName: __ZN5boost13re_detail_50012perl_matcherIPKcNSt3__19allocatorINS_9sub_matchIS3_EEEENS_12regex_traitsIcNS_16cpp_regex_traitsIcEEEEE12match_acceptEv, symObjAddr: 0x416A, symBinAddr: 0x1882E, symSize: 0x2A }
  - { offset: 0x12A483, size: 0x8, addend: 0x0, symName: __ZN5boost13re_detail_50012perl_matcherIPKcNSt3__19allocatorINS_9sub_matchIS3_EEEENS_12regex_traitsIcNS_16cpp_regex_traitsIcEEEEE16skip_until_parenEib, symObjAddr: 0x5BA0, symBinAddr: 0x19798, symSize: 0xBA }
  - { offset: 0x12A569, size: 0x8, addend: 0x0, symName: __ZN5boost13re_detail_50012perl_matcherIPKcNSt3__19allocatorINS_9sub_matchIS3_EEEENS_12regex_traitsIcNS_16cpp_regex_traitsIcEEEEE12match_commitEv, symObjAddr: 0x4194, symBinAddr: 0x18858, symSize: 0x7A }
  - { offset: 0x12A605, size: 0x8, addend: 0x0, symName: __ZN5boost13re_detail_50012perl_matcherIPKcNSt3__19allocatorINS_9sub_matchIS3_EEEENS_12regex_traitsIcNS_16cpp_regex_traitsIcEEEEE10match_thenEv, symObjAddr: 0x420E, symBinAddr: 0x188D2, symSize: 0x52 }
  - { offset: 0x12A779, size: 0x8, addend: 0x0, symName: __ZNK5boost13re_detail_50031cpp_regex_traits_implementationIcE12error_stringENS_15regex_constants10error_typeE, symObjAddr: 0x5C64, symBinAddr: 0x19854, symSize: 0xA4 }
  - { offset: 0x12A9FF, size: 0x8, addend: 0x0, symName: __ZN5boost13match_resultsIPKcNSt3__19allocatorINS_9sub_matchIS2_EEEEE9set_firstES2_mb.cold.1, symObjAddr: 0x7FFA, symBinAddr: 0x1CBA2, symSize: 0x23 }
  - { offset: 0x12AB57, size: 0x8, addend: 0x0, symName: __ZN5boost13re_detail_50015mem_block_cacheD1Ev, symObjAddr: 0x4428, symBinAddr: 0x18AEC, symSize: 0x2E }
  - { offset: 0x12ACDD, size: 0x8, addend: 0x0, symName: __ZNSt3__16vectorIN5boost9sub_matchIPKcEENS_9allocatorIS5_EEE18__assign_with_sizeB8ne180100IPS5_SA_EEvT_T0_l, symObjAddr: 0x4524, symBinAddr: 0x18B94, symSize: 0x1A6 }
  - { offset: 0x12B66C, size: 0x8, addend: 0x0, symName: __ZNSt3__16vectorIN5boost9sub_matchIPKcEENS_9allocatorIS5_EEE11__vallocateB8ne180100Em, symObjAddr: 0x46CA, symBinAddr: 0x18D3A, symSize: 0x44 }
  - { offset: 0x12BA1D, size: 0x8, addend: 0x0, symName: __ZNSt3__16vectorIN5boost9sub_matchIPKcEENS_9allocatorIS5_EEE11__vallocateB8ne180100Em, symObjAddr: 0x46CA, symBinAddr: 0x18D3A, symSize: 0x44 }
  - { offset: 0x12BAB1, size: 0x8, addend: 0x0, symName: __ZNKSt3__16vectorIN5boost9sub_matchIPKcEENS_9allocatorIS5_EEE20__throw_length_errorB8ne180100Ev, symObjAddr: 0x470E, symBinAddr: 0x18D7E, symSize: 0x10 }
  - { offset: 0x12BC0A, size: 0x8, addend: 0x0, symName: __ZNSt3__16vectorIN5boost9sub_matchIPKcEENS_9allocatorIS5_EEE16__init_with_sizeB8ne180100IPS5_SA_EEvT_T0_m, symObjAddr: 0x48B4, symBinAddr: 0x18E7C, symSize: 0x6C }
  - { offset: 0x12C051, size: 0x8, addend: 0x0, symName: __ZN5boost13re_detail_50014repeater_countIPKcE12unwind_untilEiPS4_i, symObjAddr: 0x497E, symBinAddr: 0x18F46, symSize: 0x68 }
  - { offset: 0x12C0C5, size: 0x8, addend: 0x0, symName: __ZN5boost13match_resultsIPKcNSt3__19allocatorINS_9sub_matchIS2_EEEEE10set_secondES2_.cold.1, symObjAddr: 0x801D, symBinAddr: 0x1CBC5, symSize: 0x23 }
  - { offset: 0x12CA6B, size: 0x8, addend: 0x0, symName: __ZNKSt3__112basic_stringIcNS_11char_traitsIcEENS_9allocatorIcEEE20__throw_length_errorB8ne180100Ev, symObjAddr: 0x4F24, symBinAddr: 0x190D4, symSize: 0x10 }
  - { offset: 0x12D0CC, size: 0x8, addend: 0x0, symName: __ZN5boost13re_detail_50012perl_matcherIPKcNSt3__19allocatorINS_9sub_matchIS3_EEEENS_12regex_traitsIcNS_16cpp_regex_traitsIcEEEEE21match_dot_repeat_slowEv, symObjAddr: 0x56C4, symBinAddr: 0x192BC, symSize: 0x17E }
  - { offset: 0x12D507, size: 0x8, addend: 0x0, symName: __ZNSt3__114__split_bufferIN5boost13re_detail_50014recursion_infoINS1_13match_resultsIPKcNS_9allocatorINS1_9sub_matchIS6_EEEEEEEERNS7_ISC_EEED2Ev, symObjAddr: 0x5A40, symBinAddr: 0x19638, symSize: 0x44 }
  - { offset: 0x12D6D6, size: 0x8, addend: 0x0, symName: __ZNKSt3__16vectorIN5boost13re_detail_50014recursion_infoINS1_13match_resultsIPKcNS_9allocatorINS1_9sub_matchIS6_EEEEEEEENS7_ISC_EEE20__throw_length_errorB8ne180100Ev, symObjAddr: 0x58EE, symBinAddr: 0x194E6, symSize: 0x10 }
  - { offset: 0x12D700, size: 0x8, addend: 0x0, symName: __ZNSt3__16vectorIN5boost13re_detail_50014recursion_infoINS1_13match_resultsIPKcNS_9allocatorINS1_9sub_matchIS6_EEEEEEEENS7_ISC_EEE26__swap_out_circular_bufferERNS_14__split_bufferISC_RSD_EE, symObjAddr: 0x58FE, symBinAddr: 0x194F6, symSize: 0x79 }
  - { offset: 0x12DFA9, size: 0x8, addend: 0x0, symName: __ZN5boost11regex_errorD0Ev, symObjAddr: 0x5D9C, symBinAddr: 0x198F8, symSize: 0x1C }
  - { offset: 0x12E01E, size: 0x8, addend: 0x0, symName: __ZN5boost10wrapexceptINS_11regex_errorEEC1ERKS1_, symObjAddr: 0x5E04, symBinAddr: 0x19960, symSize: 0x78 }
  - { offset: 0x12E14D, size: 0x8, addend: 0x0, symName: __ZN5boost10wrapexceptINS_11regex_errorEED1Ev, symObjAddr: 0x5E7C, symBinAddr: 0x199D8, symSize: 0x34 }
  - { offset: 0x12E283, size: 0x8, addend: 0x0, symName: __ZNK5boost10wrapexceptINS_11regex_errorEE5cloneEv, symObjAddr: 0x5EB0, symBinAddr: 0x19A0C, symSize: 0xEC }
  - { offset: 0x12E49D, size: 0x8, addend: 0x0, symName: __ZNK5boost10wrapexceptINS_11regex_errorEE7rethrowEv, symObjAddr: 0x5F9C, symBinAddr: 0x19AF8, symSize: 0x4C }
  - { offset: 0x12E5BD, size: 0x8, addend: 0x0, symName: __ZN5boost10wrapexceptINS_11regex_errorEED0Ev, symObjAddr: 0x5FE8, symBinAddr: 0x19B44, symSize: 0x38 }
  - { offset: 0x12E695, size: 0x8, addend: 0x0, symName: __ZThn8_N5boost10wrapexceptINS_11regex_errorEED1Ev, symObjAddr: 0x6020, symBinAddr: 0x19B7C, symSize: 0x30 }
  - { offset: 0x12E774, size: 0x8, addend: 0x0, symName: __ZThn8_N5boost10wrapexceptINS_11regex_errorEED0Ev, symObjAddr: 0x6050, symBinAddr: 0x19BAC, symSize: 0x3A }
  - { offset: 0x12E85F, size: 0x8, addend: 0x0, symName: __ZThn40_N5boost10wrapexceptINS_11regex_errorEED0Ev, symObjAddr: 0x60BC, symBinAddr: 0x19BE8, symSize: 0x3E }
  - { offset: 0x12E948, size: 0x8, addend: 0x0, symName: __ZN5boost10wrapexceptISt11logic_errorEC1ERKS1_, symObjAddr: 0x6286, symBinAddr: 0x19CFE, symSize: 0x5C }
  - { offset: 0x12EA30, size: 0x8, addend: 0x0, symName: __ZN5boost10wrapexceptISt11logic_errorED1Ev, symObjAddr: 0x62E2, symBinAddr: 0x19D5A, symSize: 0x34 }
  - { offset: 0x12EB46, size: 0x8, addend: 0x0, symName: __ZNK5boost10wrapexceptISt11logic_errorE5cloneEv, symObjAddr: 0x6316, symBinAddr: 0x19D8E, symSize: 0xD4 }
  - { offset: 0x12ED1A, size: 0x8, addend: 0x0, symName: __ZNK5boost10wrapexceptISt11logic_errorE7rethrowEv, symObjAddr: 0x63EA, symBinAddr: 0x19E62, symSize: 0x4C }
  - { offset: 0x12ED57, size: 0x8, addend: 0x0, symName: __ZN5boost10wrapexceptISt11logic_errorEC1ERKS2_, symObjAddr: 0x6548, symBinAddr: 0x19FC0, symSize: 0x9E }
  - { offset: 0x12EE92, size: 0x8, addend: 0x0, symName: __ZN5boost10wrapexceptISt11logic_errorED0Ev, symObjAddr: 0x6436, symBinAddr: 0x19EAE, symSize: 0x38 }
  - { offset: 0x12EF4C, size: 0x8, addend: 0x0, symName: __ZThn8_N5boost10wrapexceptISt11logic_errorED1Ev, symObjAddr: 0x646E, symBinAddr: 0x19EE6, symSize: 0x30 }
  - { offset: 0x12F00B, size: 0x8, addend: 0x0, symName: __ZThn8_N5boost10wrapexceptISt11logic_errorED0Ev, symObjAddr: 0x649E, symBinAddr: 0x19F16, symSize: 0x3A }
  - { offset: 0x12F0D8, size: 0x8, addend: 0x0, symName: __ZThn24_N5boost10wrapexceptISt11logic_errorED1Ev, symObjAddr: 0x64D8, symBinAddr: 0x19F50, symSize: 0x32 }
  - { offset: 0x12F179, size: 0x8, addend: 0x0, symName: __ZThn24_N5boost10wrapexceptISt11logic_errorED0Ev, symObjAddr: 0x650A, symBinAddr: 0x19F82, symSize: 0x3E }
  - { offset: 0x12F244, size: 0x8, addend: 0x0, symName: __ZN5boost13re_detail_50015save_state_initC2EPPNS0_11saved_stateES4_.cold.1, symObjAddr: 0x809A, symBinAddr: 0x1CBEA, symSize: 0x21 }
  - { offset: 0x12F66E, size: 0x8, addend: 0x0, symName: __ZNSt3__16vectorIN5boost9sub_matchIPKcEENS_9allocatorIS5_EEE12__move_rangeEPS5_S9_S9_, symObjAddr: 0x691A, symBinAddr: 0x1A392, symSize: 0x8C }
  - { offset: 0x12FA95, size: 0x8, addend: 0x0, symName: __ZN5boost13re_detail_50012perl_matcherIPKcNSt3__19allocatorINS_9sub_matchIS3_EEEENS_12regex_traitsIcNS_16cpp_regex_traitsIcEEEEE10unwind_endEb, symObjAddr: 0x6A8E, symBinAddr: 0x1A4C6, symSize: 0x10 }
  - { offset: 0x12FAD4, size: 0x8, addend: 0x0, symName: __ZN5boost13re_detail_50012perl_matcherIPKcNSt3__19allocatorINS_9sub_matchIS3_EEEENS_12regex_traitsIcNS_16cpp_regex_traitsIcEEEEE12unwind_parenEb, symObjAddr: 0x6A9E, symBinAddr: 0x1A4D6, symSize: 0x60 }
  - { offset: 0x12FB3C, size: 0x8, addend: 0x0, symName: __ZN5boost13re_detail_50012perl_matcherIPKcNSt3__19allocatorINS_9sub_matchIS3_EEEENS_12regex_traitsIcNS_16cpp_regex_traitsIcEEEEE24unwind_recursion_stopperEb, symObjAddr: 0x6AFE, symBinAddr: 0x1A536, symSize: 0x18 }
  - { offset: 0x12FB7B, size: 0x8, addend: 0x0, symName: __ZN5boost13re_detail_50012perl_matcherIPKcNSt3__19allocatorINS_9sub_matchIS3_EEEENS_12regex_traitsIcNS_16cpp_regex_traitsIcEEEEE16unwind_assertionEb, symObjAddr: 0x6B16, symBinAddr: 0x1A54E, symSize: 0x46 }
  - { offset: 0x12FBE0, size: 0x8, addend: 0x0, symName: __ZN5boost13re_detail_50012perl_matcherIPKcNSt3__19allocatorINS_9sub_matchIS3_EEEENS_12regex_traitsIcNS_16cpp_regex_traitsIcEEEEE10unwind_altEb, symObjAddr: 0x6B5C, symBinAddr: 0x1A594, symSize: 0x3A }
  - { offset: 0x12FC62, size: 0x8, addend: 0x0, symName: __ZN5boost13re_detail_50012perl_matcherIPKcNSt3__19allocatorINS_9sub_matchIS3_EEEENS_12regex_traitsIcNS_16cpp_regex_traitsIcEEEEE23unwind_repeater_counterEb, symObjAddr: 0x6B96, symBinAddr: 0x1A5CE, symSize: 0x2A }
  - { offset: 0x12FD8E, size: 0x8, addend: 0x0, symName: __ZN5boost13re_detail_50012perl_matcherIPKcNSt3__19allocatorINS_9sub_matchIS3_EEEENS_12regex_traitsIcNS_16cpp_regex_traitsIcEEEEE18unwind_extra_blockEb, symObjAddr: 0x6BC0, symBinAddr: 0x1A5F8, symSize: 0x5C }
  - { offset: 0x12FF6D, size: 0x8, addend: 0x0, symName: __ZN5boost13re_detail_50012perl_matcherIPKcNSt3__19allocatorINS_9sub_matchIS3_EEEENS_12regex_traitsIcNS_16cpp_regex_traitsIcEEEEE27unwind_greedy_single_repeatEb, symObjAddr: 0x6C1C, symBinAddr: 0x1A654, symSize: 0xE0 }
  - { offset: 0x1300A5, size: 0x8, addend: 0x0, symName: __ZN5boost13re_detail_50012perl_matcherIPKcNSt3__19allocatorINS_9sub_matchIS3_EEEENS_12regex_traitsIcNS_16cpp_regex_traitsIcEEEEE27unwind_greedy_single_repeatEb.cold.1, symObjAddr: 0x80BB, symBinAddr: 0x1CC0B, symSize: 0x23 }
  - { offset: 0x1300BD, size: 0x8, addend: 0x0, symName: __ZN5boost13re_detail_50012perl_matcherIPKcNSt3__19allocatorINS_9sub_matchIS3_EEEENS_12regex_traitsIcNS_16cpp_regex_traitsIcEEEEE27unwind_greedy_single_repeatEb.cold.2, symObjAddr: 0x80DE, symBinAddr: 0x1CC2E, symSize: 0x23 }
  - { offset: 0x1300D5, size: 0x8, addend: 0x0, symName: __ZN5boost13re_detail_50012perl_matcherIPKcNSt3__19allocatorINS_9sub_matchIS3_EEEENS_12regex_traitsIcNS_16cpp_regex_traitsIcEEEEE27unwind_greedy_single_repeatEb.cold.3, symObjAddr: 0x8101, symBinAddr: 0x1CC51, symSize: 0x23 }
  - { offset: 0x1300ED, size: 0x8, addend: 0x0, symName: __ZN5boost13re_detail_50012perl_matcherIPKcNSt3__19allocatorINS_9sub_matchIS3_EEEENS_12regex_traitsIcNS_16cpp_regex_traitsIcEEEEE22unwind_slow_dot_repeatEb, symObjAddr: 0x6CFC, symBinAddr: 0x1A734, symSize: 0x158 }
  - { offset: 0x13028B, size: 0x8, addend: 0x0, symName: __ZN5boost13re_detail_50012perl_matcherIPKcNSt3__19allocatorINS_9sub_matchIS3_EEEENS_12regex_traitsIcNS_16cpp_regex_traitsIcEEEEE22unwind_slow_dot_repeatEb.cold.5, symObjAddr: 0x81B0, symBinAddr: 0x1CD00, symSize: 0x23 }
  - { offset: 0x1302A3, size: 0x8, addend: 0x0, symName: __ZN5boost13re_detail_50012perl_matcherIPKcNSt3__19allocatorINS_9sub_matchIS3_EEEENS_12regex_traitsIcNS_16cpp_regex_traitsIcEEEEE22unwind_slow_dot_repeatEb.cold.1, symObjAddr: 0x8124, symBinAddr: 0x1CC74, symSize: 0x23 }
  - { offset: 0x1302BB, size: 0x8, addend: 0x0, symName: __ZN5boost13re_detail_50012perl_matcherIPKcNSt3__19allocatorINS_9sub_matchIS3_EEEENS_12regex_traitsIcNS_16cpp_regex_traitsIcEEEEE22unwind_slow_dot_repeatEb.cold.2, symObjAddr: 0x8147, symBinAddr: 0x1CC97, symSize: 0x23 }
  - { offset: 0x1302D3, size: 0x8, addend: 0x0, symName: __ZN5boost13re_detail_50012perl_matcherIPKcNSt3__19allocatorINS_9sub_matchIS3_EEEENS_12regex_traitsIcNS_16cpp_regex_traitsIcEEEEE22unwind_slow_dot_repeatEb.cold.4, symObjAddr: 0x818D, symBinAddr: 0x1CCDD, symSize: 0x23 }
  - { offset: 0x1302EB, size: 0x8, addend: 0x0, symName: __ZN5boost13re_detail_50012perl_matcherIPKcNSt3__19allocatorINS_9sub_matchIS3_EEEENS_12regex_traitsIcNS_16cpp_regex_traitsIcEEEEE22unwind_slow_dot_repeatEb.cold.3, symObjAddr: 0x816A, symBinAddr: 0x1CCBA, symSize: 0x23 }
  - { offset: 0x130303, size: 0x8, addend: 0x0, symName: __ZN5boost13re_detail_50012perl_matcherIPKcNSt3__19allocatorINS_9sub_matchIS3_EEEENS_12regex_traitsIcNS_16cpp_regex_traitsIcEEEEE22unwind_fast_dot_repeatEb, symObjAddr: 0x6E54, symBinAddr: 0x1A88C, symSize: 0x10C }
  - { offset: 0x13043C, size: 0x8, addend: 0x0, symName: __ZN5boost13re_detail_50012perl_matcherIPKcNSt3__19allocatorINS_9sub_matchIS3_EEEENS_12regex_traitsIcNS_16cpp_regex_traitsIcEEEEE22unwind_fast_dot_repeatEb.cold.1, symObjAddr: 0x81D3, symBinAddr: 0x1CD23, symSize: 0x23 }
  - { offset: 0x130454, size: 0x8, addend: 0x0, symName: __ZN5boost13re_detail_50012perl_matcherIPKcNSt3__19allocatorINS_9sub_matchIS3_EEEENS_12regex_traitsIcNS_16cpp_regex_traitsIcEEEEE18unwind_char_repeatEb, symObjAddr: 0x6F60, symBinAddr: 0x1A998, symSize: 0x1A0 }
  - { offset: 0x130655, size: 0x8, addend: 0x0, symName: __ZN5boost13re_detail_50012perl_matcherIPKcNSt3__19allocatorINS_9sub_matchIS3_EEEENS_12regex_traitsIcNS_16cpp_regex_traitsIcEEEEE18unwind_char_repeatEb.cold.5, symObjAddr: 0x8282, symBinAddr: 0x1CDD2, symSize: 0x23 }
  - { offset: 0x13066D, size: 0x8, addend: 0x0, symName: __ZN5boost13re_detail_50012perl_matcherIPKcNSt3__19allocatorINS_9sub_matchIS3_EEEENS_12regex_traitsIcNS_16cpp_regex_traitsIcEEEEE18unwind_char_repeatEb.cold.1, symObjAddr: 0x81F6, symBinAddr: 0x1CD46, symSize: 0x23 }
  - { offset: 0x130685, size: 0x8, addend: 0x0, symName: __ZN5boost13re_detail_50012perl_matcherIPKcNSt3__19allocatorINS_9sub_matchIS3_EEEENS_12regex_traitsIcNS_16cpp_regex_traitsIcEEEEE18unwind_char_repeatEb.cold.2, symObjAddr: 0x8219, symBinAddr: 0x1CD69, symSize: 0x23 }
  - { offset: 0x13069D, size: 0x8, addend: 0x0, symName: __ZN5boost13re_detail_50012perl_matcherIPKcNSt3__19allocatorINS_9sub_matchIS3_EEEENS_12regex_traitsIcNS_16cpp_regex_traitsIcEEEEE18unwind_char_repeatEb.cold.4, symObjAddr: 0x825F, symBinAddr: 0x1CDAF, symSize: 0x23 }
  - { offset: 0x1306B5, size: 0x8, addend: 0x0, symName: __ZN5boost13re_detail_50012perl_matcherIPKcNSt3__19allocatorINS_9sub_matchIS3_EEEENS_12regex_traitsIcNS_16cpp_regex_traitsIcEEEEE18unwind_char_repeatEb.cold.3, symObjAddr: 0x823C, symBinAddr: 0x1CD8C, symSize: 0x23 }
  - { offset: 0x1306CD, size: 0x8, addend: 0x0, symName: __ZN5boost13re_detail_50012perl_matcherIPKcNSt3__19allocatorINS_9sub_matchIS3_EEEENS_12regex_traitsIcNS_16cpp_regex_traitsIcEEEEE23unwind_short_set_repeatEb, symObjAddr: 0x7100, symBinAddr: 0x1AB38, symSize: 0x1A6 }
  - { offset: 0x1308CE, size: 0x8, addend: 0x0, symName: __ZN5boost13re_detail_50012perl_matcherIPKcNSt3__19allocatorINS_9sub_matchIS3_EEEENS_12regex_traitsIcNS_16cpp_regex_traitsIcEEEEE23unwind_short_set_repeatEb.cold.5, symObjAddr: 0x8331, symBinAddr: 0x1CE81, symSize: 0x23 }
  - { offset: 0x1308E6, size: 0x8, addend: 0x0, symName: __ZN5boost13re_detail_50012perl_matcherIPKcNSt3__19allocatorINS_9sub_matchIS3_EEEENS_12regex_traitsIcNS_16cpp_regex_traitsIcEEEEE23unwind_short_set_repeatEb.cold.1, symObjAddr: 0x82A5, symBinAddr: 0x1CDF5, symSize: 0x23 }
  - { offset: 0x1308FE, size: 0x8, addend: 0x0, symName: __ZN5boost13re_detail_50012perl_matcherIPKcNSt3__19allocatorINS_9sub_matchIS3_EEEENS_12regex_traitsIcNS_16cpp_regex_traitsIcEEEEE23unwind_short_set_repeatEb.cold.2, symObjAddr: 0x82C8, symBinAddr: 0x1CE18, symSize: 0x23 }
  - { offset: 0x130916, size: 0x8, addend: 0x0, symName: __ZN5boost13re_detail_50012perl_matcherIPKcNSt3__19allocatorINS_9sub_matchIS3_EEEENS_12regex_traitsIcNS_16cpp_regex_traitsIcEEEEE23unwind_short_set_repeatEb.cold.4, symObjAddr: 0x830E, symBinAddr: 0x1CE5E, symSize: 0x23 }
  - { offset: 0x13092E, size: 0x8, addend: 0x0, symName: __ZN5boost13re_detail_50012perl_matcherIPKcNSt3__19allocatorINS_9sub_matchIS3_EEEENS_12regex_traitsIcNS_16cpp_regex_traitsIcEEEEE23unwind_short_set_repeatEb.cold.3, symObjAddr: 0x82EB, symBinAddr: 0x1CE3B, symSize: 0x23 }
  - { offset: 0x130946, size: 0x8, addend: 0x0, symName: __ZN5boost13re_detail_50012perl_matcherIPKcNSt3__19allocatorINS_9sub_matchIS3_EEEENS_12regex_traitsIcNS_16cpp_regex_traitsIcEEEEE22unwind_long_set_repeatEb, symObjAddr: 0x72A6, symBinAddr: 0x1ACDE, symSize: 0x1C0 }
  - { offset: 0x130B38, size: 0x8, addend: 0x0, symName: __ZN5boost13re_detail_50012perl_matcherIPKcNSt3__19allocatorINS_9sub_matchIS3_EEEENS_12regex_traitsIcNS_16cpp_regex_traitsIcEEEEE22unwind_long_set_repeatEb.cold.3, symObjAddr: 0x839A, symBinAddr: 0x1CEEA, symSize: 0x23 }
  - { offset: 0x130B67, size: 0x8, addend: 0x0, symName: __ZN5boost13re_detail_50012perl_matcherIPKcNSt3__19allocatorINS_9sub_matchIS3_EEEENS_12regex_traitsIcNS_16cpp_regex_traitsIcEEEEE22unwind_long_set_repeatEb.cold.6, symObjAddr: 0x8403, symBinAddr: 0x1CF53, symSize: 0x23 }
  - { offset: 0x130B7F, size: 0x8, addend: 0x0, symName: __ZN5boost13re_detail_50012perl_matcherIPKcNSt3__19allocatorINS_9sub_matchIS3_EEEENS_12regex_traitsIcNS_16cpp_regex_traitsIcEEEEE22unwind_long_set_repeatEb.cold.1, symObjAddr: 0x8354, symBinAddr: 0x1CEA4, symSize: 0x23 }
  - { offset: 0x130B97, size: 0x8, addend: 0x0, symName: __ZN5boost13re_detail_50012perl_matcherIPKcNSt3__19allocatorINS_9sub_matchIS3_EEEENS_12regex_traitsIcNS_16cpp_regex_traitsIcEEEEE22unwind_long_set_repeatEb.cold.2, symObjAddr: 0x8377, symBinAddr: 0x1CEC7, symSize: 0x23 }
  - { offset: 0x130BAF, size: 0x8, addend: 0x0, symName: __ZN5boost13re_detail_50012perl_matcherIPKcNSt3__19allocatorINS_9sub_matchIS3_EEEENS_12regex_traitsIcNS_16cpp_regex_traitsIcEEEEE22unwind_long_set_repeatEb.cold.5, symObjAddr: 0x83E0, symBinAddr: 0x1CF30, symSize: 0x23 }
  - { offset: 0x130BC7, size: 0x8, addend: 0x0, symName: __ZN5boost13re_detail_50012perl_matcherIPKcNSt3__19allocatorINS_9sub_matchIS3_EEEENS_12regex_traitsIcNS_16cpp_regex_traitsIcEEEEE22unwind_long_set_repeatEb.cold.4, symObjAddr: 0x83BD, symBinAddr: 0x1CF0D, symSize: 0x23 }
  - { offset: 0x130BDF, size: 0x8, addend: 0x0, symName: __ZN5boost13re_detail_50012perl_matcherIPKcNSt3__19allocatorINS_9sub_matchIS3_EEEENS_12regex_traitsIcNS_16cpp_regex_traitsIcEEEEE24unwind_non_greedy_repeatEb, symObjAddr: 0x7466, symBinAddr: 0x1AE9E, symSize: 0x3A }
  - { offset: 0x130C80, size: 0x8, addend: 0x0, symName: __ZN5boost13re_detail_50012perl_matcherIPKcNSt3__19allocatorINS_9sub_matchIS3_EEEENS_12regex_traitsIcNS_16cpp_regex_traitsIcEEEEE16unwind_recursionEb, symObjAddr: 0x74A0, symBinAddr: 0x1AED8, symSize: 0x13E }
  - { offset: 0x13116E, size: 0x8, addend: 0x0, symName: __ZN5boost13re_detail_50012perl_matcherIPKcNSt3__19allocatorINS_9sub_matchIS3_EEEENS_12regex_traitsIcNS_16cpp_regex_traitsIcEEEEE20unwind_recursion_popEb, symObjAddr: 0x75DE, symBinAddr: 0x1B016, symSize: 0x70 }
  - { offset: 0x131325, size: 0x8, addend: 0x0, symName: __ZN5boost13re_detail_50012perl_matcherIPKcNSt3__19allocatorINS_9sub_matchIS3_EEEENS_12regex_traitsIcNS_16cpp_regex_traitsIcEEEEE13unwind_commitEb, symObjAddr: 0x764E, symBinAddr: 0x1B086, symSize: 0x82 }
  - { offset: 0x1313FE, size: 0x8, addend: 0x0, symName: __ZN5boost13re_detail_50012perl_matcherIPKcNSt3__19allocatorINS_9sub_matchIS3_EEEENS_12regex_traitsIcNS_16cpp_regex_traitsIcEEEEE11unwind_thenEb, symObjAddr: 0x76D0, symBinAddr: 0x1B108, symSize: 0x4E }
  - { offset: 0x131486, size: 0x8, addend: 0x0, symName: __ZN5boost13re_detail_50012perl_matcherIPKcNSt3__19allocatorINS_9sub_matchIS3_EEEENS_12regex_traitsIcNS_16cpp_regex_traitsIcEEEEE11unwind_caseEb, symObjAddr: 0x771E, symBinAddr: 0x1B156, symSize: 0x20 }
  - { offset: 0x1318C5, size: 0x8, addend: 0x0, symName: __ZNSt3__120__shared_ptr_emplaceI12LanguageTreeNS_9allocatorIS1_EEED1Ev, symObjAddr: 0x78FE, symBinAddr: 0x1B276, symSize: 0x18 }
  - { offset: 0x131920, size: 0x8, addend: 0x0, symName: __ZNSt3__120__shared_ptr_emplaceI12LanguageTreeNS_9allocatorIS1_EEED0Ev, symObjAddr: 0x7916, symBinAddr: 0x1B28E, symSize: 0x2A }
  - { offset: 0x131A03, size: 0x8, addend: 0x0, symName: __ZNSt3__120__shared_ptr_emplaceI12LanguageTreeNS_9allocatorIS1_EEE16__on_zero_sharedEv, symObjAddr: 0x7940, symBinAddr: 0x1B2B8, symSize: 0xE }
  - { offset: 0x131AF4, size: 0x8, addend: 0x0, symName: __ZNSt3__120__shared_ptr_emplaceI12LanguageTreeNS_9allocatorIS1_EEE21__on_zero_shared_weakEv, symObjAddr: 0x794E, symBinAddr: 0x1B2C6, symSize: 0xA }
  - { offset: 0x131EA7, size: 0x8, addend: 0x0, symName: __ZNSt3__16vectorINS_10shared_ptrI10PatternRawEENS_9allocatorIS3_EEE16__destroy_vectorclB8ne180100Ev, symObjAddr: 0x79BC, symBinAddr: 0x1B334, symSize: 0x56 }
  - { offset: 0x13203F, size: 0x8, addend: 0x0, symName: __ZNSt3__16vectorINS_10shared_ptrI7PatternEENS_9allocatorIS3_EEE16__destroy_vectorclB8ne180100Ev, symObjAddr: 0x7A52, symBinAddr: 0x1B38A, symSize: 0x56 }
  - { offset: 0x137CCB, size: 0x8, addend: 0x0, symName: __ZN9TokenListC2ENSt3__117basic_string_viewIcNS0_11char_traitsIcEEEE, symObjAddr: 0x0, symBinAddr: 0x1B460, symSize: 0x7A }
  - { offset: 0x137E01, size: 0x8, addend: 0x0, symName: __ZN9TokenListC1ENSt3__117basic_string_viewIcNS0_11char_traitsIcEEEE, symObjAddr: 0x7A, symBinAddr: 0x1B4DA, symSize: 0xA }
  - { offset: 0x137E63, size: 0x8, addend: 0x0, symName: __ZN9TokenListD2Ev, symObjAddr: 0x84, symBinAddr: 0x1B4E4, symSize: 0x42 }
  - { offset: 0x137EE4, size: 0x8, addend: 0x0, symName: __ZN9TokenListD1Ev, symObjAddr: 0xC6, symBinAddr: 0x1B526, symSize: 0xA }
  - { offset: 0x138119, size: 0x8, addend: 0x0, symName: __ZN9TokenList8addAfterEP13TokenListNodeRKNSt3__112basic_stringIcNS2_11char_traitsIcEENS2_9allocatorIcEEEEOS_SA_m, symObjAddr: 0xD0, symBinAddr: 0x1B530, symSize: 0x8A }
  - { offset: 0x138238, size: 0x8, addend: 0x0, symName: __ZN6SyntaxC2EP13TokenListNodeS1_RKNSt3__112basic_stringIcNS2_11char_traitsIcEENS2_9allocatorIcEEEEO9TokenListSA_m, symObjAddr: 0x21E, symBinAddr: 0x1B67E, symSize: 0xC8 }
  - { offset: 0x1385B6, size: 0x8, addend: 0x0, symName: __ZN6SyntaxC1EP13TokenListNodeS1_RKNSt3__112basic_stringIcNS2_11char_traitsIcEENS2_9allocatorIcEEEEO9TokenListSA_m, symObjAddr: 0x15A, symBinAddr: 0x1B5BA, symSize: 0xA }
  - { offset: 0x138647, size: 0x8, addend: 0x0, symName: __ZN9TokenList8addAfterEP13TokenListNodeNSt3__117basic_string_viewIcNS2_11char_traitsIcEEEE, symObjAddr: 0x164, symBinAddr: 0x1B5C4, symSize: 0x62 }
  - { offset: 0x13874E, size: 0x8, addend: 0x0, symName: __ZN9TokenList11removeRangeEP13TokenListNodem, symObjAddr: 0x1C6, symBinAddr: 0x1B626, symSize: 0x58 }
  - { offset: 0x138BC1, size: 0x8, addend: 0x0, symName: __ZN9TokenListC2EOS_, symObjAddr: 0x4E4, symBinAddr: 0x1B832, symSize: 0x4F }
  - { offset: 0x138C54, size: 0x8, addend: 0x0, symName: __ZN6SyntaxD1Ev, symObjAddr: 0x2E6, symBinAddr: 0x1B746, symSize: 0x4C }
  - { offset: 0x138F10, size: 0x8, addend: 0x0, symName: __ZN6SyntaxD0Ev, symObjAddr: 0x332, symBinAddr: 0x1B792, symSize: 0x4C }
  - { offset: 0x1391FA, size: 0x8, addend: 0x0, symName: __ZNK6Syntax6lengthEv, symObjAddr: 0x37E, symBinAddr: 0x1B7DE, symSize: 0xA }
  - { offset: 0x13921F, size: 0x8, addend: 0x0, symName: __ZNK6Syntax8isSyntaxEv, symObjAddr: 0x388, symBinAddr: 0x1B7E8, symSize: 0x8 }
  - { offset: 0x139244, size: 0x8, addend: 0x0, symName: __ZN13TokenListNodeD1Ev, symObjAddr: 0x390, symBinAddr: 0x1B7F0, symSize: 0x6 }
  - { offset: 0x13926D, size: 0x8, addend: 0x0, symName: __ZN13TokenListNodeD0Ev, symObjAddr: 0x396, symBinAddr: 0x1B7F6, symSize: 0xA }
  - { offset: 0x139296, size: 0x8, addend: 0x0, symName: __ZNK13TokenListNode6lengthEv, symObjAddr: 0x3A0, symBinAddr: 0x1B800, symSize: 0x8 }
  - { offset: 0x1392BB, size: 0x8, addend: 0x0, symName: __ZNK13TokenListNode8isSyntaxEv, symObjAddr: 0x3A8, symBinAddr: 0x1B808, symSize: 0x8 }
  - { offset: 0x1392E0, size: 0x8, addend: 0x0, symName: __ZN4TextD1Ev, symObjAddr: 0x3B0, symBinAddr: 0x1B810, symSize: 0x6 }
  - { offset: 0x13930B, size: 0x8, addend: 0x0, symName: __ZN4TextD0Ev, symObjAddr: 0x3B6, symBinAddr: 0x1B816, symSize: 0xA }
  - { offset: 0x139351, size: 0x8, addend: 0x0, symName: __ZNK4Text6lengthEv, symObjAddr: 0x3C0, symBinAddr: 0x1B820, symSize: 0xA }
  - { offset: 0x139396, size: 0x8, addend: 0x0, symName: __ZNK4Text8isSyntaxEv, symObjAddr: 0x3CA, symBinAddr: 0x1B82A, symSize: 0x8 }
  - { offset: 0x13B35A, size: 0x8, addend: 0x0, symName: '_$s9libprisma4TestCfD', symObjAddr: 0x0, symBinAddr: 0x1B890, symSize: 0x20 }
  - { offset: 0x13B395, size: 0x8, addend: 0x0, symName: '_$s9libprisma4TestCMa', symObjAddr: 0x20, symBinAddr: 0x1B8B0, symSize: 0x14 }
  - { offset: 0x13B3B0, size: 0x8, addend: 0x0, symName: '_$s9libprisma4TestCfD', symObjAddr: 0x0, symBinAddr: 0x1B890, symSize: 0x20 }
...
